
a5.elf:     file format elf32-msp430


Disassembly of section .text:

0000c000 <__watchdog_support>:
    c000:	55 42 20 01 	mov.b	&0x0120,r5	
    c004:	35 d0 08 5a 	bis	#23048,	r5	;#0x5a08
    c008:	82 45 2a 02 	mov	r5,	&0x022a	

0000c00c <__init_stack>:
    c00c:	31 40 00 04 	mov	#1024,	r1	;#0x0400

0000c010 <__do_copy_data>:
    c010:	3f 40 0a 00 	mov	#10,	r15	;#0x000a
    c014:	0f 93       	tst	r15		
    c016:	08 24       	jz	$+18     	;abs 0xc028
    c018:	92 42 2a 02 	mov	&0x022a,&0x0120	
    c01c:	20 01 
    c01e:	2f 83       	decd	r15		
    c020:	9f 4f a2 cb 	mov	-13406(r15),512(r15);0xcba2(r15), 0x0200(r15)
    c024:	00 02 
    c026:	f8 23       	jnz	$-14     	;abs 0xc018

0000c028 <__do_clear_bss>:
    c028:	3f 40 20 00 	mov	#32,	r15	;#0x0020
    c02c:	0f 93       	tst	r15		
    c02e:	07 24       	jz	$+16     	;abs 0xc03e
    c030:	92 42 2a 02 	mov	&0x022a,&0x0120	
    c034:	20 01 
    c036:	1f 83       	dec	r15		
    c038:	cf 43 0a 02 	mov.b	#0,	522(r15);r3 As==00, 0x020a(r15)
    c03c:	f9 23       	jnz	$-12     	;abs 0xc030

0000c03e <main>:
    c03e:	b2 40 80 5a 	mov	#23168,	&0x0120	;#0x5a80
    c042:	20 01 
    c044:	5f 42 ff 10 	mov.b	&0x10ff,r15	
    c048:	c2 4f 57 00 	mov.b	r15,	&0x0057	
    c04c:	5f 42 fe 10 	mov.b	&0x10fe,r15	
    c050:	c2 4f 56 00 	mov.b	r15,	&0x0056	
    c054:	5f 42 2e 00 	mov.b	&0x002e,r15	
    c058:	7f f0 3f 00 	and.b	#63,	r15	;#0x003f
    c05c:	c2 4f 2e 00 	mov.b	r15,	&0x002e	
    c060:	f2 43 2a 00 	mov.b	#-1,	&0x002a	;r3 As==11
    c064:	f2 40 e1 ff 	mov.b	#-31,	&0x0022	;#0xffe1
    c068:	22 00 
    c06a:	f2 40 c0 ff 	mov.b	#-64,	&0x0021	;#0xffc0
    c06e:	21 00 
    c070:	b2 40 10 02 	mov	#528,	&0x0160	;#0x0210
    c074:	60 01 
    c076:	b2 40 00 04 	mov	#1024,	&0x0172	;#0x0400
    c07a:	72 01 
    c07c:	b2 40 10 00 	mov	#16,	&0x0162	;#0x0010
    c080:	62 01 
    c082:	5f 42 25 00 	mov.b	&0x0025,r15	
    c086:	7f d2       	bis.b	#8,	r15	;r2 As==11
    c088:	c2 4f 25 00 	mov.b	r15,	&0x0025	
    c08c:	5f 42 24 00 	mov.b	&0x0024,r15	
    c090:	7f d2       	bis.b	#8,	r15	;r2 As==11
    c092:	c2 4f 24 00 	mov.b	r15,	&0x0024	
    c096:	3f 40 80 25 	mov	#9600,	r15	;#0x2580
    c09a:	b0 12 9c ca 	call	#0xca9c	
    c09e:	3e 40 26 02 	mov	#550,	r14	;#0x0226
    c0a2:	3f 40 00 40 	mov	#16384,	r15	;#0x4000
    c0a6:	b0 12 76 c5 	call	#0xc576	
    c0aa:	32 d2       	eint			
    c0ac:	01 3c       	jmp	$+4      	;abs 0xc0b0
    c0ae:	03 43       	nop			
    c0b0:	1f 42 1a 02 	mov	&0x021a,r15	
    c0b4:	0f 93       	tst	r15		
    c0b6:	fb 23       	jnz	$-8      	;abs 0xc0ae
    c0b8:	3f 40 0a 02 	mov	#522,	r15	;#0x020a
    c0bc:	b0 12 14 c6 	call	#0xc614	
    c0c0:	2f 43       	mov	#2,	r15	;r3 As==10
    c0c2:	3e 40 82 45 	mov	#17794,	r14	;#0x4582
    c0c6:	1e 83       	dec	r14		
    c0c8:	0e 93       	tst	r14		
    c0ca:	fd 23       	jnz	$-4      	;abs 0xc0c6
    c0cc:	1f 83       	dec	r15		
    c0ce:	0f 93       	tst	r15		
    c0d0:	fa 23       	jnz	$-10     	;abs 0xc0c6
    c0d2:	03 43       	nop			
    c0d4:	30 12 0a 02 	push	#522		;#0x020a
    c0d8:	30 12 5a cb 	push	#-13478	;#0xcb5a
    c0dc:	b0 12 3c c8 	call	#0xc83c	
    c0e0:	21 52       	add	#4,	r1	;r2 As==10
    c0e2:	92 43 1a 02 	mov	#1,	&0x021a	;r3 As==01
    c0e6:	e3 3f       	jmp	$-56     	;abs 0xc0ae

0000c0e8 <__stop_progExec__>:
    c0e8:	32 d0 f0 00 	bis	#240,	r2	;#0x00f0
    c0ec:	fd 3f       	jmp	$-4      	;abs 0xc0e8

0000c0ee <__ctors_end>:
    c0ee:	30 40 30 cb 	br	#0xcb30	

0000c0f2 <checkAnswer>:
    c0f2:	31 50 e8 ff 	add	#-24,	r1	;#0xffe8
    c0f6:	82 43 1c 02 	mov	#0,	&0x021c	;r3 As==00
    c0fa:	82 43 1e 02 	mov	#0,	&0x021e	;r3 As==00
    c0fe:	1f 42 20 02 	mov	&0x0220,r15	
    c102:	0f 12       	push	r15		
    c104:	30 12 32 cb 	push	#-13518	;#0xcb32
    c108:	b0 12 3c c8 	call	#0xc83c	
    c10c:	21 52       	add	#4,	r1	;r2 As==10
    c10e:	81 43 00 00 	mov	#0,	0(r1)	;r3 As==00, 0x0000(r1)
    c112:	0d 3c       	jmp	$+28     	;abs 0xc12e
    c114:	2f 41       	mov	@r1,	r15	
    c116:	3f 50 10 02 	add	#528,	r15	;#0x0210
    c11a:	6f 4f       	mov.b	@r15,	r15	
    c11c:	8f 11       	sxt	r15		
    c11e:	0f 12       	push	r15		
    c120:	30 12 38 cb 	push	#-13512	;#0xcb38
    c124:	b0 12 3c c8 	call	#0xc83c	
    c128:	21 52       	add	#4,	r1	;r2 As==10
    c12a:	91 53 00 00 	inc	0(r1)		;0x0000(r1)
    c12e:	a1 92 00 00 	cmp	#4,	0(r1)	;r2 As==10, 0x0000(r1)
    c132:	f0 3b       	jl	$-30     	;abs 0xc114
    c134:	30 12 3b cb 	push	#-13509	;#0xcb3b
    c138:	b0 12 3c c8 	call	#0xc83c	
    c13c:	21 53       	incd	r1		
    c13e:	91 43 08 00 	mov	#1,	8(r1)	;r3 As==01, 0x0008(r1)
    c142:	91 43 0a 00 	mov	#1,	10(r1)	;r3 As==01, 0x000a(r1)
    c146:	91 43 0c 00 	mov	#1,	12(r1)	;r3 As==01, 0x000c(r1)
    c14a:	91 43 0e 00 	mov	#1,	14(r1)	;r3 As==01, 0x000e(r1)
    c14e:	91 43 10 00 	mov	#1,	16(r1)	;r3 As==01, 0x0010(r1)
    c152:	91 43 12 00 	mov	#1,	18(r1)	;r3 As==01, 0x0012(r1)
    c156:	91 43 14 00 	mov	#1,	20(r1)	;r3 As==01, 0x0014(r1)
    c15a:	91 43 16 00 	mov	#1,	22(r1)	;r3 As==01, 0x0016(r1)
    c15e:	81 43 02 00 	mov	#0,	2(r1)	;r3 As==00, 0x0002(r1)
    c162:	22 3c       	jmp	$+70     	;abs 0xc1a8
    c164:	1f 41 02 00 	mov	2(r1),	r15	;0x0002(r1)
    c168:	3f 50 10 02 	add	#528,	r15	;#0x0210
    c16c:	6e 4f       	mov.b	@r15,	r14	
    c16e:	1f 41 02 00 	mov	2(r1),	r15	;0x0002(r1)
    c172:	3f 50 0a 02 	add	#522,	r15	;#0x020a
    c176:	6f 4f       	mov.b	@r15,	r15	
    c178:	4e 9f       	cmp.b	r15,	r14	
    c17a:	14 20       	jnz	$+42     	;abs 0xc1a4
    c17c:	1f 42 1c 02 	mov	&0x021c,r15	
    c180:	1f 53       	inc	r15		
    c182:	82 4f 1c 02 	mov	r15,	&0x021c	
    c186:	1f 41 02 00 	mov	2(r1),	r15	;0x0002(r1)
    c18a:	0f 5f       	rla	r15		
    c18c:	0f 51       	add	r1,	r15	
    c18e:	3f 50 10 00 	add	#16,	r15	;#0x0010
    c192:	8f 43 00 00 	mov	#0,	0(r15)	;r3 As==00, 0x0000(r15)
    c196:	1f 41 02 00 	mov	2(r1),	r15	;0x0002(r1)
    c19a:	0f 5f       	rla	r15		
    c19c:	0f 51       	add	r1,	r15	
    c19e:	3f 52       	add	#8,	r15	;r2 As==11
    c1a0:	8f 43 00 00 	mov	#0,	0(r15)	;r3 As==00, 0x0000(r15)
    c1a4:	91 53 02 00 	inc	2(r1)		;0x0002(r1)
    c1a8:	a1 92 02 00 	cmp	#4,	2(r1)	;r2 As==10, 0x0002(r1)
    c1ac:	db 3b       	jl	$-72     	;abs 0xc164
    c1ae:	81 43 04 00 	mov	#0,	4(r1)	;r3 As==00, 0x0004(r1)
    c1b2:	3f 3c       	jmp	$+128    	;abs 0xc232
    c1b4:	81 43 06 00 	mov	#0,	6(r1)	;r3 As==00, 0x0006(r1)
    c1b8:	37 3c       	jmp	$+112    	;abs 0xc228
    c1ba:	1f 41 04 00 	mov	4(r1),	r15	;0x0004(r1)
    c1be:	3f 50 0a 02 	add	#522,	r15	;#0x020a
    c1c2:	6e 4f       	mov.b	@r15,	r14	
    c1c4:	1f 41 06 00 	mov	6(r1),	r15	;0x0006(r1)
    c1c8:	3f 50 10 02 	add	#528,	r15	;#0x0210
    c1cc:	6f 4f       	mov.b	@r15,	r15	
    c1ce:	4e 9f       	cmp.b	r15,	r14	
    c1d0:	29 20       	jnz	$+84     	;abs 0xc224
    c1d2:	1f 41 04 00 	mov	4(r1),	r15	;0x0004(r1)
    c1d6:	0f 5f       	rla	r15		
    c1d8:	0f 51       	add	r1,	r15	
    c1da:	3f 52       	add	#8,	r15	;r2 As==11
    c1dc:	2f 4f       	mov	@r15,	r15	
    c1de:	0f 93       	tst	r15		
    c1e0:	21 24       	jz	$+68     	;abs 0xc224
    c1e2:	1f 41 06 00 	mov	6(r1),	r15	;0x0006(r1)
    c1e6:	0f 5f       	rla	r15		
    c1e8:	0f 51       	add	r1,	r15	
    c1ea:	3f 50 10 00 	add	#16,	r15	;#0x0010
    c1ee:	2f 4f       	mov	@r15,	r15	
    c1f0:	0f 93       	tst	r15		
    c1f2:	18 24       	jz	$+50     	;abs 0xc224
    c1f4:	91 91 06 00 	cmp	6(r1),	4(r1)	;0x0006(r1), 0x0004(r1)
    c1f8:	04 00 
    c1fa:	14 24       	jz	$+42     	;abs 0xc224
    c1fc:	1f 42 1e 02 	mov	&0x021e,r15	
    c200:	1f 53       	inc	r15		
    c202:	82 4f 1e 02 	mov	r15,	&0x021e	
    c206:	1f 41 04 00 	mov	4(r1),	r15	;0x0004(r1)
    c20a:	0f 5f       	rla	r15		
    c20c:	0f 51       	add	r1,	r15	
    c20e:	3f 52       	add	#8,	r15	;r2 As==11
    c210:	8f 43 00 00 	mov	#0,	0(r15)	;r3 As==00, 0x0000(r15)
    c214:	1f 41 06 00 	mov	6(r1),	r15	;0x0006(r1)
    c218:	0f 5f       	rla	r15		
    c21a:	0f 51       	add	r1,	r15	
    c21c:	3f 50 10 00 	add	#16,	r15	;#0x0010
    c220:	8f 43 00 00 	mov	#0,	0(r15)	;r3 As==00, 0x0000(r15)
    c224:	91 53 06 00 	inc	6(r1)		;0x0006(r1)
    c228:	a1 92 06 00 	cmp	#4,	6(r1)	;r2 As==10, 0x0006(r1)
    c22c:	c6 3b       	jl	$-114    	;abs 0xc1ba
    c22e:	91 53 04 00 	inc	4(r1)		;0x0004(r1)
    c232:	a1 92 04 00 	cmp	#4,	4(r1)	;r2 As==10, 0x0004(r1)
    c236:	be 3b       	jl	$-130    	;abs 0xc1b4
    c238:	1e 42 1e 02 	mov	&0x021e,r14	
    c23c:	1f 42 1c 02 	mov	&0x021c,r15	
    c240:	0e 12       	push	r14		
    c242:	0f 12       	push	r15		
    c244:	30 12 3e cb 	push	#-13506	;#0xcb3e
    c248:	b0 12 3c c8 	call	#0xc83c	
    c24c:	31 50 06 00 	add	#6,	r1	;#0x0006
    c250:	1f 42 20 02 	mov	&0x0220,r15	
    c254:	1f 53       	inc	r15		
    c256:	82 4f 20 02 	mov	r15,	&0x0220	
    c25a:	1f 42 1c 02 	mov	&0x021c,r15	
    c25e:	2f 92       	cmp	#4,	r15	;r2 As==10
    c260:	1c 20       	jnz	$+58     	;abs 0xc29a
    c262:	30 12 44 cb 	push	#-13500	;#0xcb44
    c266:	b0 12 3c c8 	call	#0xc83c	
    c26a:	21 53       	incd	r1		
    c26c:	92 43 22 02 	mov	#1,	&0x0222	;r3 As==01
    c270:	3f 40 0a 02 	mov	#522,	r15	;#0x020a
    c274:	cf 43 00 00 	mov.b	#0,	0(r15)	;r3 As==00, 0x0000(r15)
    c278:	1f 53       	inc	r15		
    c27a:	cf 43 00 00 	mov.b	#0,	0(r15)	;r3 As==00, 0x0000(r15)
    c27e:	1f 53       	inc	r15		
    c280:	cf 43 00 00 	mov.b	#0,	0(r15)	;r3 As==00, 0x0000(r15)
    c284:	1f 53       	inc	r15		
    c286:	cf 43 00 00 	mov.b	#0,	0(r15)	;r3 As==00, 0x0000(r15)
    c28a:	1f 53       	inc	r15		
    c28c:	cf 43 00 00 	mov.b	#0,	0(r15)	;r3 As==00, 0x0000(r15)
    c290:	1f 53       	inc	r15		
    c292:	82 43 1a 02 	mov	#0,	&0x021a	;r3 As==00
    c296:	82 43 20 02 	mov	#0,	&0x0220	;r3 As==00
    c29a:	1f 42 20 02 	mov	&0x0220,r15	
    c29e:	3f 90 0a 00 	cmp	#10,	r15	;#0x000a
    c2a2:	20 20       	jnz	$+66     	;abs 0xc2e4
    c2a4:	1f 42 22 02 	mov	&0x0222,r15	
    c2a8:	0f 93       	tst	r15		
    c2aa:	1c 20       	jnz	$+58     	;abs 0xc2e4
    c2ac:	30 12 4f cb 	push	#-13489	;#0xcb4f
    c2b0:	b0 12 3c c8 	call	#0xc83c	
    c2b4:	21 53       	incd	r1		
    c2b6:	3f 40 0a 02 	mov	#522,	r15	;#0x020a
    c2ba:	cf 43 00 00 	mov.b	#0,	0(r15)	;r3 As==00, 0x0000(r15)
    c2be:	1f 53       	inc	r15		
    c2c0:	cf 43 00 00 	mov.b	#0,	0(r15)	;r3 As==00, 0x0000(r15)
    c2c4:	1f 53       	inc	r15		
    c2c6:	cf 43 00 00 	mov.b	#0,	0(r15)	;r3 As==00, 0x0000(r15)
    c2ca:	1f 53       	inc	r15		
    c2cc:	cf 43 00 00 	mov.b	#0,	0(r15)	;r3 As==00, 0x0000(r15)
    c2d0:	1f 53       	inc	r15		
    c2d2:	cf 43 00 00 	mov.b	#0,	0(r15)	;r3 As==00, 0x0000(r15)
    c2d6:	1f 53       	inc	r15		
    c2d8:	82 43 1a 02 	mov	#0,	&0x021a	;r3 As==00
    c2dc:	82 43 20 02 	mov	#0,	&0x0220	;r3 As==00
    c2e0:	82 43 22 02 	mov	#0,	&0x0222	;r3 As==00
    c2e4:	1f 42 24 02 	mov	&0x0224,r15	
    c2e8:	82 4f 22 02 	mov	r15,	&0x0222	
    c2ec:	31 50 18 00 	add	#24,	r1	;#0x0018
    c2f0:	30 41       	ret			

0000c2f2 <button_isr>:
    c2f2:	0f 12       	push	r15		
    c2f4:	0e 12       	push	r14		
    c2f6:	0d 12       	push	r13		
    c2f8:	0c 12       	push	r12		
    c2fa:	1f 42 1a 02 	mov	&0x021a,r15	
    c2fe:	1f 93       	cmp	#1,	r15	;r3 As==01
    c300:	15 20       	jnz	$+44     	;abs 0xc32c
    c302:	1f 42 16 02 	mov	&0x0216,r15	
    c306:	5e 42 28 02 	mov.b	&0x0228,r14	
    c30a:	cf 4e 10 02 	mov.b	r14,	528(r15);0x0210(r15)
    c30e:	1f 42 16 02 	mov	&0x0216,r15	
    c312:	3f 90 03 00 	cmp	#3,	r15	;#0x0003
    c316:	05 20       	jnz	$+12     	;abs 0xc322
    c318:	82 43 16 02 	mov	#0,	&0x0216	;r3 As==00
    c31c:	b0 12 f2 c0 	call	#0xc0f2	
    c320:	05 3c       	jmp	$+12     	;abs 0xc32c
    c322:	1f 42 16 02 	mov	&0x0216,r15	
    c326:	1f 53       	inc	r15		
    c328:	82 4f 16 02 	mov	r15,	&0x0216	
    c32c:	03 43       	nop			
    c32e:	5f 42 20 00 	mov.b	&0x0020,r15	
    c332:	7f f2       	and.b	#8,	r15	;r2 As==11
    c334:	4f 93       	tst.b	r15		
    c336:	fb 27       	jz	$-8      	;abs 0xc32e
    c338:	3f 40 aa 29 	mov	#10666,	r15	;#0x29aa
    c33c:	1f 83       	dec	r15		
    c33e:	0f 93       	tst	r15		
    c340:	fd 23       	jnz	$-4      	;abs 0xc33c
    c342:	5f 42 23 00 	mov.b	&0x0023,r15	
    c346:	7f f0 f7 ff 	and.b	#-9,	r15	;#0xfff7
    c34a:	c2 4f 23 00 	mov.b	r15,	&0x0023	
    c34e:	3c 41       	pop	r12		
    c350:	3d 41       	pop	r13		
    c352:	3e 41       	pop	r14		
    c354:	3f 41       	pop	r15		
    c356:	00 13       	reti			

0000c358 <timer0_isr>:
    c358:	0f 12       	push	r15		
    c35a:	0e 12       	push	r14		
    c35c:	5f 42 21 00 	mov.b	&0x0021,r15	
    c360:	7f f0 3f 00 	and.b	#63,	r15	;#0x003f
    c364:	c2 4f 21 00 	mov.b	r15,	&0x0021	
    c368:	5f 42 21 00 	mov.b	&0x0021,r15	
    c36c:	7f f0 de ff 	and.b	#-34,	r15	;#0xffde
    c370:	c2 4f 21 00 	mov.b	r15,	&0x0021	
    c374:	5f 42 29 00 	mov.b	&0x0029,r15	
    c378:	7f f0 2a 00 	and.b	#42,	r15	;#0x002a
    c37c:	c2 4f 29 00 	mov.b	r15,	&0x0029	
    c380:	1f 42 18 02 	mov	&0x0218,r15	
    c384:	0f 93       	tst	r15		
    c386:	05 20       	jnz	$+12     	;abs 0xc392
    c388:	1f 42 1c 02 	mov	&0x021c,r15	
    c38c:	82 4f 14 02 	mov	r15,	&0x0214	
    c390:	04 3c       	jmp	$+10     	;abs 0xc39a
    c392:	1f 42 1e 02 	mov	&0x021e,r15	
    c396:	82 4f 14 02 	mov	r15,	&0x0214	
    c39a:	1f 42 14 02 	mov	&0x0214,r15	
    c39e:	5e 4f 00 02 	mov.b	512(r15),r14	;0x0200(r15)
    c3a2:	5f 42 21 00 	mov.b	&0x0021,r15	
    c3a6:	4f de       	bis.b	r14,	r15	
    c3a8:	c2 4f 21 00 	mov.b	r15,	&0x0021	
    c3ac:	1f 42 14 02 	mov	&0x0214,r15	
    c3b0:	5e 4f 05 02 	mov.b	517(r15),r14	;0x0205(r15)
    c3b4:	5f 42 29 00 	mov.b	&0x0029,r15	
    c3b8:	4f de       	bis.b	r14,	r15	
    c3ba:	c2 4f 29 00 	mov.b	r15,	&0x0029	
    c3be:	1f 42 18 02 	mov	&0x0218,r15	
    c3c2:	0f 93       	tst	r15		
    c3c4:	07 20       	jnz	$+16     	;abs 0xc3d4
    c3c6:	5f 42 21 00 	mov.b	&0x0021,r15	
    c3ca:	7f d0 80 ff 	bis.b	#-128,	r15	;#0xff80
    c3ce:	c2 4f 21 00 	mov.b	r15,	&0x0021	
    c3d2:	06 3c       	jmp	$+14     	;abs 0xc3e0
    c3d4:	5f 42 21 00 	mov.b	&0x0021,r15	
    c3d8:	7f d0 40 00 	bis.b	#64,	r15	;#0x0040
    c3dc:	c2 4f 21 00 	mov.b	r15,	&0x0021	
    c3e0:	1f 42 18 02 	mov	&0x0218,r15	
    c3e4:	1f 53       	inc	r15		
    c3e6:	82 4f 18 02 	mov	r15,	&0x0218	
    c3ea:	1f 42 18 02 	mov	&0x0218,r15	
    c3ee:	3f f0 01 80 	and	#-32767,r15	;#0x8001
    c3f2:	0f 93       	tst	r15		
    c3f4:	04 34       	jge	$+10     	;abs 0xc3fe
    c3f6:	3f 53       	add	#-1,	r15	;r3 As==11
    c3f8:	3f d0 fe ff 	bis	#-2,	r15	;#0xfffe
    c3fc:	1f 53       	inc	r15		
    c3fe:	82 4f 18 02 	mov	r15,	&0x0218	
    c402:	1f 42 26 02 	mov	&0x0226,r15	
    c406:	3f 90 80 00 	cmp	#128,	r15	;#0x0080
    c40a:	0f 2c       	jc	$+32     	;abs 0xc42a
    c40c:	5f 42 29 00 	mov.b	&0x0029,r15	
    c410:	7f f0 d5 ff 	and.b	#-43,	r15	;#0xffd5
    c414:	c2 4f 29 00 	mov.b	r15,	&0x0029	
    c418:	5f 42 29 00 	mov.b	&0x0029,r15	
    c41c:	7f d0 28 00 	bis.b	#40,	r15	;#0x0028
    c420:	c2 4f 29 00 	mov.b	r15,	&0x0029	
    c424:	f2 40 43 00 	mov.b	#67,	&0x0228	;#0x0043
    c428:	28 02 
    c42a:	1f 42 26 02 	mov	&0x0226,r15	
    c42e:	3f 90 80 00 	cmp	#128,	r15	;#0x0080
    c432:	14 28       	jnc	$+42     	;abs 0xc45c
    c434:	1f 42 26 02 	mov	&0x0226,r15	
    c438:	3f 90 00 01 	cmp	#256,	r15	;#0x0100
    c43c:	0f 2c       	jc	$+32     	;abs 0xc45c
    c43e:	5f 42 29 00 	mov.b	&0x0029,r15	
    c442:	7f f0 d5 ff 	and.b	#-43,	r15	;#0xffd5
    c446:	c2 4f 29 00 	mov.b	r15,	&0x0029	
    c44a:	5f 42 29 00 	mov.b	&0x0029,r15	
    c44e:	7f d0 22 00 	bis.b	#34,	r15	;#0x0022
    c452:	c2 4f 29 00 	mov.b	r15,	&0x0029	
    c456:	f2 40 4d 00 	mov.b	#77,	&0x0228	;#0x004d
    c45a:	28 02 
    c45c:	1f 42 26 02 	mov	&0x0226,r15	
    c460:	3f 90 00 01 	cmp	#256,	r15	;#0x0100
    c464:	14 28       	jnc	$+42     	;abs 0xc48e
    c466:	1f 42 26 02 	mov	&0x0226,r15	
    c46a:	3f 90 80 01 	cmp	#384,	r15	;#0x0180
    c46e:	0f 2c       	jc	$+32     	;abs 0xc48e
    c470:	5f 42 29 00 	mov.b	&0x0029,r15	
    c474:	7f f0 d5 ff 	and.b	#-43,	r15	;#0xffd5
    c478:	c2 4f 29 00 	mov.b	r15,	&0x0029	
    c47c:	5f 42 29 00 	mov.b	&0x0029,r15	
    c480:	7f d0 0a 00 	bis.b	#10,	r15	;#0x000a
    c484:	c2 4f 29 00 	mov.b	r15,	&0x0029	
    c488:	f2 40 59 00 	mov.b	#89,	&0x0228	;#0x0059
    c48c:	28 02 
    c48e:	1f 42 26 02 	mov	&0x0226,r15	
    c492:	3f 90 80 01 	cmp	#384,	r15	;#0x0180
    c496:	0e 28       	jnc	$+30     	;abs 0xc4b4
    c498:	1f 42 26 02 	mov	&0x0226,r15	
    c49c:	3f 90 00 02 	cmp	#512,	r15	;#0x0200
    c4a0:	09 2c       	jc	$+20     	;abs 0xc4b4
    c4a2:	5f 42 29 00 	mov.b	&0x0029,r15	
    c4a6:	7f f0 d5 ff 	and.b	#-43,	r15	;#0xffd5
    c4aa:	c2 4f 29 00 	mov.b	r15,	&0x0029	
    c4ae:	f2 40 4b 00 	mov.b	#75,	&0x0228	;#0x004b
    c4b2:	28 02 
    c4b4:	1f 42 26 02 	mov	&0x0226,r15	
    c4b8:	3f 90 00 02 	cmp	#512,	r15	;#0x0200
    c4bc:	13 28       	jnc	$+40     	;abs 0xc4e4
    c4be:	1f 42 26 02 	mov	&0x0226,r15	
    c4c2:	3f 90 80 02 	cmp	#640,	r15	;#0x0280
    c4c6:	0e 2c       	jc	$+30     	;abs 0xc4e4
    c4c8:	5f 42 29 00 	mov.b	&0x0029,r15	
    c4cc:	7f f0 d5 ff 	and.b	#-43,	r15	;#0xffd5
    c4d0:	c2 4f 29 00 	mov.b	r15,	&0x0029	
    c4d4:	5f 42 29 00 	mov.b	&0x0029,r15	
    c4d8:	6f d3       	bis.b	#2,	r15	;r3 As==10
    c4da:	c2 4f 29 00 	mov.b	r15,	&0x0029	
    c4de:	f2 40 52 00 	mov.b	#82,	&0x0228	;#0x0052
    c4e2:	28 02 
    c4e4:	1f 42 26 02 	mov	&0x0226,r15	
    c4e8:	3f 90 80 02 	cmp	#640,	r15	;#0x0280
    c4ec:	13 28       	jnc	$+40     	;abs 0xc514
    c4ee:	1f 42 26 02 	mov	&0x0226,r15	
    c4f2:	3f 90 00 03 	cmp	#768,	r15	;#0x0300
    c4f6:	0e 2c       	jc	$+30     	;abs 0xc514
    c4f8:	5f 42 29 00 	mov.b	&0x0029,r15	
    c4fc:	7f f0 d5 ff 	and.b	#-43,	r15	;#0xffd5
    c500:	c2 4f 29 00 	mov.b	r15,	&0x0029	
    c504:	5f 42 29 00 	mov.b	&0x0029,r15	
    c508:	7f d2       	bis.b	#8,	r15	;r2 As==11
    c50a:	c2 4f 29 00 	mov.b	r15,	&0x0029	
    c50e:	f2 40 47 00 	mov.b	#71,	&0x0228	;#0x0047
    c512:	28 02 
    c514:	1f 42 26 02 	mov	&0x0226,r15	
    c518:	3f 90 00 03 	cmp	#768,	r15	;#0x0300
    c51c:	14 28       	jnc	$+42     	;abs 0xc546
    c51e:	1f 42 26 02 	mov	&0x0226,r15	
    c522:	3f 90 80 03 	cmp	#896,	r15	;#0x0380
    c526:	0f 2c       	jc	$+32     	;abs 0xc546
    c528:	5f 42 29 00 	mov.b	&0x0029,r15	
    c52c:	7f f0 d5 ff 	and.b	#-43,	r15	;#0xffd5
    c530:	c2 4f 29 00 	mov.b	r15,	&0x0029	
    c534:	5f 42 29 00 	mov.b	&0x0029,r15	
    c538:	7f d0 20 00 	bis.b	#32,	r15	;#0x0020
    c53c:	c2 4f 29 00 	mov.b	r15,	&0x0029	
    c540:	f2 40 42 00 	mov.b	#66,	&0x0228	;#0x0042
    c544:	28 02 
    c546:	1f 42 26 02 	mov	&0x0226,r15	
    c54a:	3f 90 80 03 	cmp	#896,	r15	;#0x0380
    c54e:	0f 28       	jnc	$+32     	;abs 0xc56e
    c550:	5f 42 29 00 	mov.b	&0x0029,r15	
    c554:	7f f0 d5 ff 	and.b	#-43,	r15	;#0xffd5
    c558:	c2 4f 29 00 	mov.b	r15,	&0x0029	
    c55c:	5f 42 29 00 	mov.b	&0x0029,r15	
    c560:	7f d0 2a 00 	bis.b	#42,	r15	;#0x002a
    c564:	c2 4f 29 00 	mov.b	r15,	&0x0029	
    c568:	f2 40 57 00 	mov.b	#87,	&0x0228	;#0x0057
    c56c:	28 02 
    c56e:	3e 41       	pop	r14		
    c570:	3f 41       	pop	r15		
    c572:	00 13       	reti			

0000c574 <timer1_isr>:
    c574:	00 13       	reti			

0000c576 <initialize_dtc>:
    c576:	21 82       	sub	#4,	r1	;r2 As==10
    c578:	81 4f 00 00 	mov	r15,	0(r1)	;0x0000(r1)
    c57c:	81 4e 02 00 	mov	r14,	2(r1)	;0x0002(r1)
    c580:	1f 42 b0 01 	mov	&0x01b0,r15	
    c584:	3f f0 fd ff 	and	#-3,	r15	;#0xfffd
    c588:	82 4f b0 01 	mov	r15,	&0x01b0	
    c58c:	82 43 bc 01 	mov	#0,	&0x01bc	;r3 As==00
    c590:	b2 40 10 00 	mov	#16,	&0x01b0	;#0x0010
    c594:	b0 01 
    c596:	03 43       	nop			
    c598:	1f 42 b2 01 	mov	&0x01b2,r15	
    c59c:	1f f3       	and	#1,	r15	;r3 As==01
    c59e:	4f 4f       	mov.b	r15,	r15	
    c5a0:	4f 93       	tst.b	r15		
    c5a2:	fa 23       	jnz	$-10     	;abs 0xc598
    c5a4:	e2 42 48 00 	mov.b	#4,	&0x0048	;r2 As==10
    c5a8:	d2 43 49 00 	mov.b	#1,	&0x0049	;r3 As==01
    c5ac:	1f 41 02 00 	mov	2(r1),	r15	;0x0002(r1)
    c5b0:	82 4f bc 01 	mov	r15,	&0x01bc	
    c5b4:	1f 42 b0 01 	mov	&0x01b0,r15	
    c5b8:	3f d0 a0 18 	bis	#6304,	r15	;#0x18a0
    c5bc:	82 4f b0 01 	mov	r15,	&0x01b0	
    c5c0:	2f 41       	mov	@r1,	r15	
    c5c2:	3f d0 fc 00 	bis	#252,	r15	;#0x00fc
    c5c6:	82 4f b2 01 	mov	r15,	&0x01b2	
    c5ca:	2f 41       	mov	@r1,	r15	
    c5cc:	8f 10       	swpb	r15		
    c5ce:	4f 4f       	mov.b	r15,	r15	
    c5d0:	12 c3       	clrc			
    c5d2:	0f 10       	rrc	r15		
    c5d4:	12 c3       	clrc			
    c5d6:	0f 10       	rrc	r15		
    c5d8:	12 c3       	clrc			
    c5da:	0f 10       	rrc	r15		
    c5dc:	12 c3       	clrc			
    c5de:	0f 10       	rrc	r15		
    c5e0:	0e 4f       	mov	r15,	r14	
    c5e2:	1f 43       	mov	#1,	r15	;r3 As==01
    c5e4:	4e 4e       	mov.b	r14,	r14	
    c5e6:	7e f0 0f 00 	and.b	#15,	r14	;#0x000f
    c5ea:	4e 93       	tst.b	r14		
    c5ec:	04 24       	jz	$+10     	;abs 0xc5f6
    c5ee:	0f 5f       	rla	r15		
    c5f0:	7e 53       	add.b	#-1,	r14	;r3 As==11
    c5f2:	4e 93       	tst.b	r14		
    c5f4:	fc 23       	jnz	$-6      	;abs 0xc5ee
    c5f6:	4f 4f       	mov.b	r15,	r15	
    c5f8:	c2 4f 4a 00 	mov.b	r15,	&0x004a	
    c5fc:	1f 42 b0 01 	mov	&0x01b0,r15	
    c600:	2f d3       	bis	#2,	r15	;r3 As==10
    c602:	82 4f b0 01 	mov	r15,	&0x01b0	
    c606:	1f 42 b0 01 	mov	&0x01b0,r15	
    c60a:	1f d3       	bis	#1,	r15	;r3 As==01
    c60c:	82 4f b0 01 	mov	r15,	&0x01b0	
    c610:	21 52       	add	#4,	r1	;r2 As==10
    c612:	30 41       	ret			

0000c614 <prompt_for_line>:
    c614:	31 50 fa ff 	add	#-6,	r1	;#0xfffa
    c618:	81 4f 04 00 	mov	r15,	4(r1)	;0x0004(r1)
    c61c:	81 43 00 00 	mov	#0,	0(r1)	;r3 As==00, 0x0000(r1)
    c620:	3f 40 66 cb 	mov	#-13466,r15	;#0xcb66
    c624:	b0 12 74 c7 	call	#0xc774	
    c628:	b0 12 6c c9 	call	#0xc96c	
    c62c:	c1 4f 02 00 	mov.b	r15,	2(r1)	;0x0002(r1)
    c630:	59 3c       	jmp	$+180    	;abs 0xc6e4
    c632:	f1 92 02 00 	cmp.b	#8,	2(r1)	;r2 As==11, 0x0002(r1)
    c636:	15 20       	jnz	$+44     	;abs 0xc662
    c638:	81 93 00 00 	tst	0(r1)		;0x0000(r1)
    c63c:	4f 24       	jz	$+160    	;abs 0xc6dc
    c63e:	b1 53 00 00 	add	#-1,	0(r1)	;r3 As==11, 0x0000(r1)
    c642:	2f 41       	mov	@r1,	r15	
    c644:	1f 51 04 00 	add	4(r1),	r15	;0x0004(r1)
    c648:	cf 43 00 00 	mov.b	#0,	0(r15)	;r3 As==00, 0x0000(r15)
    c64c:	7f 42       	mov.b	#8,	r15	;r2 As==11
    c64e:	b0 12 66 c9 	call	#0xc966	
    c652:	7f 40 20 00 	mov.b	#32,	r15	;#0x0020
    c656:	b0 12 66 c9 	call	#0xc966	
    c65a:	7f 42       	mov.b	#8,	r15	;r2 As==11
    c65c:	b0 12 66 c9 	call	#0xc966	
    c660:	3d 3c       	jmp	$+124    	;abs 0xc6dc
    c662:	f1 90 63 00 	cmp.b	#99,	2(r1)	;#0x0063, 0x0002(r1)
    c666:	02 00 
    c668:	1c 24       	jz	$+58     	;abs 0xc6a2
    c66a:	f1 90 79 00 	cmp.b	#121,	2(r1)	;#0x0079, 0x0002(r1)
    c66e:	02 00 
    c670:	18 24       	jz	$+50     	;abs 0xc6a2
    c672:	f1 90 6d 00 	cmp.b	#109,	2(r1)	;#0x006d, 0x0002(r1)
    c676:	02 00 
    c678:	14 24       	jz	$+42     	;abs 0xc6a2
    c67a:	f1 90 6b 00 	cmp.b	#107,	2(r1)	;#0x006b, 0x0002(r1)
    c67e:	02 00 
    c680:	10 24       	jz	$+34     	;abs 0xc6a2
    c682:	f1 90 72 00 	cmp.b	#114,	2(r1)	;#0x0072, 0x0002(r1)
    c686:	02 00 
    c688:	0c 24       	jz	$+26     	;abs 0xc6a2
    c68a:	f1 90 67 00 	cmp.b	#103,	2(r1)	;#0x0067, 0x0002(r1)
    c68e:	02 00 
    c690:	08 24       	jz	$+18     	;abs 0xc6a2
    c692:	f1 90 62 00 	cmp.b	#98,	2(r1)	;#0x0062, 0x0002(r1)
    c696:	02 00 
    c698:	04 24       	jz	$+10     	;abs 0xc6a2
    c69a:	f1 90 77 00 	cmp.b	#119,	2(r1)	;#0x0077, 0x0002(r1)
    c69e:	02 00 
    c6a0:	1d 20       	jnz	$+60     	;abs 0xc6dc
    c6a2:	a1 92 00 00 	cmp	#4,	0(r1)	;r2 As==10, 0x0000(r1)
    c6a6:	1a 34       	jge	$+54     	;abs 0xc6dc
    c6a8:	f1 90 7b 00 	cmp.b	#123,	2(r1)	;#0x007b, 0x0002(r1)
    c6ac:	02 00 
    c6ae:	0a 34       	jge	$+22     	;abs 0xc6c4
    c6b0:	f1 90 61 00 	cmp.b	#97,	2(r1)	;#0x0061, 0x0002(r1)
    c6b4:	02 00 
    c6b6:	06 38       	jl	$+14     	;abs 0xc6c4
    c6b8:	5f 41 02 00 	mov.b	2(r1),	r15	;0x0002(r1)
    c6bc:	7f 50 e0 ff 	add.b	#-32,	r15	;#0xffe0
    c6c0:	c1 4f 02 00 	mov.b	r15,	2(r1)	;0x0002(r1)
    c6c4:	2f 41       	mov	@r1,	r15	
    c6c6:	1f 51 04 00 	add	4(r1),	r15	;0x0004(r1)
    c6ca:	df 41 02 00 	mov.b	2(r1),	0(r15)	;0x0002(r1), 0x0000(r15)
    c6ce:	00 00 
    c6d0:	91 53 00 00 	inc	0(r1)		;0x0000(r1)
    c6d4:	5f 41 02 00 	mov.b	2(r1),	r15	;0x0002(r1)
    c6d8:	b0 12 66 c9 	call	#0xc966	
    c6dc:	b0 12 6c c9 	call	#0xc96c	
    c6e0:	c1 4f 02 00 	mov.b	r15,	2(r1)	;0x0002(r1)
    c6e4:	f1 90 0d 00 	cmp.b	#13,	2(r1)	;#0x000d, 0x0002(r1)
    c6e8:	02 00 
    c6ea:	a3 23       	jnz	$-184    	;abs 0xc632
    c6ec:	2f 41       	mov	@r1,	r15	
    c6ee:	1f 51 04 00 	add	4(r1),	r15	;0x0004(r1)
    c6f2:	cf 43 00 00 	mov.b	#0,	0(r15)	;r3 As==00, 0x0000(r15)
    c6f6:	31 50 06 00 	add	#6,	r1	;#0x0006
    c6fa:	30 41       	ret			

0000c6fc <_xtoa>:
    c6fc:	0b 12       	push	r11		
    c6fe:	0a 12       	push	r10		
    c700:	09 12       	push	r9		
    c702:	08 12       	push	r8		
    c704:	07 12       	push	r7		
    c706:	0a 4e       	mov	r14,	r10	
    c708:	0b 4f       	mov	r15,	r11	
    c70a:	07 4d       	mov	r13,	r7	
    c70c:	0e 93       	tst	r14		
    c70e:	04 20       	jnz	$+10     	;abs 0xc718
    c710:	0b 93       	tst	r11		
    c712:	1f 24       	jz	$+64     	;abs 0xc752
    c714:	01 3c       	jmp	$+4      	;abs 0xc718
    c716:	27 52       	add	#4,	r7	;r2 As==10
    c718:	1b 97 02 00 	cmp	2(r7),	r11	;0x0002(r7)
    c71c:	fc 2b       	jnc	$-6      	;abs 0xc716
    c71e:	02 20       	jnz	$+6      	;abs 0xc724
    c720:	2a 97       	cmp	@r7,	r10	
    c722:	f9 2b       	jnc	$-12     	;abs 0xc716
    c724:	38 47       	mov	@r7+,	r8	
    c726:	39 47       	mov	@r7+,	r9	
    c728:	7f 40 30 00 	mov.b	#48,	r15	;#0x0030
    c72c:	03 3c       	jmp	$+8      	;abs 0xc734
    c72e:	5f 53       	inc.b	r15		
    c730:	0a 88       	sub	r8,	r10	
    c732:	0b 79       	subc	r9,	r11	
    c734:	0b 99       	cmp	r9,	r11	
    c736:	04 28       	jnc	$+10     	;abs 0xc740
    c738:	09 9b       	cmp	r11,	r9	
    c73a:	f9 2b       	jnc	$-12     	;abs 0xc72e
    c73c:	0a 98       	cmp	r8,	r10	
    c73e:	f7 2f       	jc	$-16     	;abs 0xc72e
    c740:	b0 12 66 c9 	call	#0xc966	
    c744:	18 f3       	and	#1,	r8	;r3 As==01
    c746:	09 f3       	and	#0,	r9	;r3 As==00
    c748:	08 93       	tst	r8		
    c74a:	07 20       	jnz	$+16     	;abs 0xc75a
    c74c:	09 93       	tst	r9		
    c74e:	ea 27       	jz	$-42     	;abs 0xc724
    c750:	04 3c       	jmp	$+10     	;abs 0xc75a
    c752:	7f 40 30 00 	mov.b	#48,	r15	;#0x0030
    c756:	b0 12 66 c9 	call	#0xc966	
    c75a:	37 41       	pop	r7		
    c75c:	38 41       	pop	r8		
    c75e:	39 41       	pop	r9		
    c760:	3a 41       	pop	r10		
    c762:	3b 41       	pop	r11		
    c764:	30 41       	ret			

0000c766 <_puth>:
    c766:	3f f0 0f 00 	and	#15,	r15	;#0x000f
    c76a:	5f 4f 92 cb 	mov.b	-13422(r15),r15	;0xcb92(r15)
    c76e:	b0 12 66 c9 	call	#0xc966	
    c772:	30 41       	ret			

0000c774 <cio_print>:
    c774:	0b 12       	push	r11		
    c776:	0b 4f       	mov	r15,	r11	
    c778:	02 3c       	jmp	$+6      	;abs 0xc77e
    c77a:	b0 12 66 c9 	call	#0xc966	
    c77e:	7f 4b       	mov.b	@r11+,	r15	
    c780:	4f 93       	tst.b	r15		
    c782:	fb 23       	jnz	$-8      	;abs 0xc77a
    c784:	3b 41       	pop	r11		
    c786:	30 41       	ret			

0000c788 <cio_printi>:
    c788:	0b 12       	push	r11		
    c78a:	0a 12       	push	r10		
    c78c:	09 12       	push	r9		
    c78e:	31 50 e0 ff 	add	#-32,	r1	;#0xffe0
    c792:	0b 4f       	mov	r15,	r11	
    c794:	0f 93       	tst	r15		
    c796:	06 24       	jz	$+14     	;abs 0xc7a4
    c798:	09 41       	mov	r1,	r9	
    c79a:	39 50 1e 00 	add	#30,	r9	;#0x001e
    c79e:	3a 40 0f 00 	mov	#15,	r10	;#0x000f
    c7a2:	18 3c       	jmp	$+50     	;abs 0xc7d4
    c7a4:	7f 40 30 00 	mov.b	#48,	r15	;#0x0030
    c7a8:	b0 12 66 c9 	call	#0xc966	
    c7ac:	24 3c       	jmp	$+74     	;abs 0xc7f6
    c7ae:	3e 40 0a 00 	mov	#10,	r14	;#0x000a
    c7b2:	0f 4b       	mov	r11,	r15	
    c7b4:	b0 12 06 cb 	call	#0xcb06	
    c7b8:	3f 50 30 00 	add	#48,	r15	;#0x0030
    c7bc:	89 4f 00 00 	mov	r15,	0(r9)	;0x0000(r9)
    c7c0:	3e 40 0a 00 	mov	#10,	r14	;#0x000a
    c7c4:	0f 4b       	mov	r11,	r15	
    c7c6:	b0 12 d4 ca 	call	#0xcad4	
    c7ca:	0b 4f       	mov	r15,	r11	
    c7cc:	3a 53       	add	#-1,	r10	;r3 As==11
    c7ce:	29 83       	decd	r9		
    c7d0:	0a 93       	tst	r10		
    c7d2:	02 24       	jz	$+6      	;abs 0xc7d8
    c7d4:	1b 93       	cmp	#1,	r11	;r3 As==01
    c7d6:	eb 37       	jge	$-40     	;abs 0xc7ae
    c7d8:	09 4a       	mov	r10,	r9	
    c7da:	0b 43       	clr	r11		
    c7dc:	07 3c       	jmp	$+16     	;abs 0xc7ec
    c7de:	0f 4a       	mov	r10,	r15	
    c7e0:	0f 5f       	rla	r15		
    c7e2:	0f 51       	add	r1,	r15	
    c7e4:	0f 5b       	add	r11,	r15	
    c7e6:	6f 4f       	mov.b	@r15,	r15	
    c7e8:	b0 12 66 c9 	call	#0xc966	
    c7ec:	19 53       	inc	r9		
    c7ee:	2b 53       	incd	r11		
    c7f0:	39 90 10 00 	cmp	#16,	r9	;#0x0010
    c7f4:	f4 23       	jnz	$-22     	;abs 0xc7de
    c7f6:	31 50 20 00 	add	#32,	r1	;#0x0020
    c7fa:	39 41       	pop	r9		
    c7fc:	3a 41       	pop	r10		
    c7fe:	3b 41       	pop	r11		
    c800:	30 41       	ret			

0000c802 <cio_printb>:
    c802:	0b 12       	push	r11		
    c804:	0a 12       	push	r10		
    c806:	0a 4f       	mov	r15,	r10	
    c808:	0b 4e       	mov	r14,	r11	
    c80a:	12 3c       	jmp	$+38     	;abs 0xc830
    c80c:	0d 4a       	mov	r10,	r13	
    c80e:	4e 4b       	mov.b	r11,	r14	
    c810:	7e f0 0f 00 	and.b	#15,	r14	;#0x000f
    c814:	4e 93       	tst.b	r14		
    c816:	03 24       	jz	$+8      	;abs 0xc81e
    c818:	0d 11       	rra	r13		
    c81a:	7e 53       	add.b	#-1,	r14	;r3 As==11
    c81c:	fb 3f       	jmp	$-8      	;abs 0xc814
    c81e:	1d f3       	and	#1,	r13	;r3 As==01
    c820:	03 24       	jz	$+8      	;abs 0xc828
    c822:	7f 40 31 00 	mov.b	#49,	r15	;#0x0031
    c826:	02 3c       	jmp	$+6      	;abs 0xc82c
    c828:	7f 40 30 00 	mov.b	#48,	r15	;#0x0030
    c82c:	b0 12 66 c9 	call	#0xc966	
    c830:	3b 53       	add	#-1,	r11	;r3 As==11
    c832:	0b 93       	tst	r11		
    c834:	eb 37       	jge	$-40     	;abs 0xc80c
    c836:	3a 41       	pop	r10		
    c838:	3b 41       	pop	r11		
    c83a:	30 41       	ret			

0000c83c <cio_printf>:
    c83c:	0b 12       	push	r11		
    c83e:	0a 12       	push	r10		
    c840:	09 12       	push	r9		
    c842:	08 12       	push	r8		
    c844:	0b 41       	mov	r1,	r11	
    c846:	3b 50 0a 00 	add	#10,	r11	;#0x000a
    c84a:	3a 4b       	mov	@r11+,	r10	
    c84c:	84 3c       	jmp	$+266    	;abs 0xc956
    c84e:	7f 90 25 00 	cmp.b	#37,	r15	;#0x0025
    c852:	7e 20       	jnz	$+254    	;abs 0xc950
    c854:	5f 4a 01 00 	mov.b	1(r10),	r15	;0x0001(r10)
    c858:	2a 53       	incd	r10		
    c85a:	7f 90 6e 00 	cmp.b	#110,	r15	;#0x006e
    c85e:	3e 24       	jz	$+126    	;abs 0xc8dc
    c860:	7f 90 6f 00 	cmp.b	#111,	r15	;#0x006f
    c864:	10 34       	jge	$+34     	;abs 0xc886
    c866:	7f 90 69 00 	cmp.b	#105,	r15	;#0x0069
    c86a:	23 24       	jz	$+72     	;abs 0xc8b2
    c86c:	7f 90 6a 00 	cmp.b	#106,	r15	;#0x006a
    c870:	06 34       	jge	$+14     	;abs 0xc87e
    c872:	4f 93       	tst.b	r15		
    c874:	73 24       	jz	$+232    	;abs 0xc95c
    c876:	7f 90 63 00 	cmp.b	#99,	r15	;#0x0063
    c87a:	6b 20       	jnz	$+216    	;abs 0xc952
    c87c:	13 3c       	jmp	$+40     	;abs 0xc8a4
    c87e:	7f 90 6c 00 	cmp.b	#108,	r15	;#0x006c
    c882:	67 20       	jnz	$+208    	;abs 0xc952
    c884:	2b 3c       	jmp	$+88     	;abs 0xc8dc
    c886:	7f 90 75 00 	cmp.b	#117,	r15	;#0x0075
    c88a:	13 24       	jz	$+40     	;abs 0xc8b2
    c88c:	7f 90 78 00 	cmp.b	#120,	r15	;#0x0078
    c890:	43 24       	jz	$+136    	;abs 0xc918
    c892:	7f 90 73 00 	cmp.b	#115,	r15	;#0x0073
    c896:	5d 20       	jnz	$+188    	;abs 0xc952
    c898:	09 4b       	mov	r11,	r9	
    c89a:	29 53       	incd	r9		
    c89c:	2f 4b       	mov	@r11,	r15	
    c89e:	b0 12 74 c7 	call	#0xc774	
    c8a2:	05 3c       	jmp	$+12     	;abs 0xc8ae
    c8a4:	09 4b       	mov	r11,	r9	
    c8a6:	29 53       	incd	r9		
    c8a8:	6f 4b       	mov.b	@r11,	r15	
    c8aa:	b0 12 66 c9 	call	#0xc966	
    c8ae:	0b 49       	mov	r9,	r11	
    c8b0:	52 3c       	jmp	$+166    	;abs 0xc956
    c8b2:	09 4b       	mov	r11,	r9	
    c8b4:	29 53       	incd	r9		
    c8b6:	2b 4b       	mov	@r11,	r11	
    c8b8:	7f 90 69 00 	cmp.b	#105,	r15	;#0x0069
    c8bc:	08 20       	jnz	$+18     	;abs 0xc8ce
    c8be:	0b 93       	tst	r11		
    c8c0:	06 34       	jge	$+14     	;abs 0xc8ce
    c8c2:	3b e3       	inv	r11		
    c8c4:	1b 53       	inc	r11		
    c8c6:	7f 40 2d 00 	mov.b	#45,	r15	;#0x002d
    c8ca:	b0 12 66 c9 	call	#0xc966	
    c8ce:	3d 40 7e cb 	mov	#-13442,r13	;#0xcb7e
    c8d2:	0e 4b       	mov	r11,	r14	
    c8d4:	0f 43       	clr	r15		
    c8d6:	b0 12 fc c6 	call	#0xc6fc	
    c8da:	e9 3f       	jmp	$-44     	;abs 0xc8ae
    c8dc:	08 4b       	mov	r11,	r8	
    c8de:	28 52       	add	#4,	r8	;r2 As==10
    c8e0:	29 4b       	mov	@r11,	r9	
    c8e2:	1b 4b 02 00 	mov	2(r11),	r11	;0x0002(r11)
    c8e6:	7f 90 6c 00 	cmp.b	#108,	r15	;#0x006c
    c8ea:	0e 20       	jnz	$+30     	;abs 0xc908
    c8ec:	0b 93       	tst	r11		
    c8ee:	0c 34       	jge	$+26     	;abs 0xc908
    c8f0:	0c 49       	mov	r9,	r12	
    c8f2:	0d 4b       	mov	r11,	r13	
    c8f4:	3c e3       	inv	r12		
    c8f6:	3d e3       	inv	r13		
    c8f8:	1c 53       	inc	r12		
    c8fa:	0d 63       	adc	r13		
    c8fc:	09 4c       	mov	r12,	r9	
    c8fe:	0b 4d       	mov	r13,	r11	
    c900:	7f 40 2d 00 	mov.b	#45,	r15	;#0x002d
    c904:	b0 12 66 c9 	call	#0xc966	
    c908:	3d 40 6a cb 	mov	#-13462,r13	;#0xcb6a
    c90c:	0e 49       	mov	r9,	r14	
    c90e:	0f 4b       	mov	r11,	r15	
    c910:	b0 12 fc c6 	call	#0xc6fc	
    c914:	0b 48       	mov	r8,	r11	
    c916:	1f 3c       	jmp	$+64     	;abs 0xc956
    c918:	09 4b       	mov	r11,	r9	
    c91a:	29 53       	incd	r9		
    c91c:	2b 4b       	mov	@r11,	r11	
    c91e:	0f 4b       	mov	r11,	r15	
    c920:	8f 10       	swpb	r15		
    c922:	8f 11       	sxt	r15		
    c924:	0f 11       	rra	r15		
    c926:	0f 11       	rra	r15		
    c928:	0f 11       	rra	r15		
    c92a:	0f 11       	rra	r15		
    c92c:	b0 12 66 c7 	call	#0xc766	
    c930:	0f 4b       	mov	r11,	r15	
    c932:	8f 10       	swpb	r15		
    c934:	8f 11       	sxt	r15		
    c936:	b0 12 66 c7 	call	#0xc766	
    c93a:	0f 4b       	mov	r11,	r15	
    c93c:	0f 11       	rra	r15		
    c93e:	0f 11       	rra	r15		
    c940:	0f 11       	rra	r15		
    c942:	0f 11       	rra	r15		
    c944:	b0 12 66 c7 	call	#0xc766	
    c948:	0f 4b       	mov	r11,	r15	
    c94a:	b0 12 66 c7 	call	#0xc766	
    c94e:	af 3f       	jmp	$-160    	;abs 0xc8ae
    c950:	1a 53       	inc	r10		
    c952:	b0 12 66 c9 	call	#0xc966	
    c956:	6f 4a       	mov.b	@r10,	r15	
    c958:	4f 93       	tst.b	r15		
    c95a:	79 23       	jnz	$-268    	;abs 0xc84e
    c95c:	38 41       	pop	r8		
    c95e:	39 41       	pop	r9		
    c960:	3a 41       	pop	r10		
    c962:	3b 41       	pop	r11		
    c964:	30 41       	ret			

0000c966 <cio_printc>:
    c966:	b0 12 b2 ca 	call	#0xcab2	
    c96a:	30 41       	ret			

0000c96c <cio_getc>:
    c96c:	b0 12 c6 ca 	call	#0xcac6	
    c970:	30 41       	ret			

0000c972 <serial_clk_init>:
    c972:	f2 d0 06 00 	bis.b	#6,	&0x0026	;#0x0006
    c976:	26 00 
    c978:	f2 d0 06 00 	bis.b	#6,	&0x0041	;#0x0006
    c97c:	41 00 
    c97e:	f2 d0 80 ff 	bis.b	#-128,	&0x0061	;#0xff80
    c982:	61 00 
    c984:	3e 90 00 12 	cmp	#4608,	r14	;#0x1200
    c988:	04 20       	jnz	$+10     	;abs 0xc992
    c98a:	3f 90 7a 00 	cmp	#122,	r15	;#0x007a
    c98e:	67 20       	jnz	$+208    	;abs 0xca5e
    c990:	07 3c       	jmp	$+16     	;abs 0xc9a0
    c992:	3e 90 00 24 	cmp	#9216,	r14	;#0x2400
    c996:	63 20       	jnz	$+200    	;abs 0xca5e
    c998:	3f 90 f4 00 	cmp	#244,	r15	;#0x00f4
    c99c:	60 20       	jnz	$+194    	;abs 0xca5e
    c99e:	2a 3c       	jmp	$+86     	;abs 0xc9f4
    c9a0:	3d 90 00 84 	cmp	#-31744,r13	;#0x8400
    c9a4:	21 24       	jz	$+68     	;abs 0xc9e8
    c9a6:	3d 90 01 84 	cmp	#-31743,r13	;#0x8401
    c9aa:	07 2c       	jc	$+16     	;abs 0xc9ba
    c9ac:	3d 90 80 25 	cmp	#9600,	r13	;#0x2580
    c9b0:	38 24       	jz	$+114    	;abs 0xca22
    c9b2:	3d 90 00 4b 	cmp	#19200,	r13	;#0x4b00
    c9b6:	35 20       	jnz	$+108    	;abs 0xca22
    c9b8:	0a 3c       	jmp	$+22     	;abs 0xc9ce
    c9ba:	3d 90 00 c2 	cmp	#-15872,r13	;#0xc200
    c9be:	42 24       	jz	$+134    	;abs 0xca44
    c9c0:	3d 90 00 e1 	cmp	#-7936,	r13	;#0xe100
    c9c4:	39 24       	jz	$+116    	;abs 0xca38
    c9c6:	3d 90 00 96 	cmp	#-27136,r13	;#0x9600
    c9ca:	2b 20       	jnz	$+88     	;abs 0xca22
    c9cc:	07 3c       	jmp	$+16     	;abs 0xc9dc
    c9ce:	f2 40 1a 00 	mov.b	#26,	&0x0062	;#0x001a
    c9d2:	62 00 
    c9d4:	f2 40 11 00 	mov.b	#17,	&0x0064	;#0x0011
    c9d8:	64 00 
    c9da:	5a 3c       	jmp	$+182    	;abs 0xca90
    c9dc:	f2 40 0d 00 	mov.b	#13,	&0x0062	;#0x000d
    c9e0:	62 00 
    c9e2:	d2 43 64 00 	mov.b	#1,	&0x0064	;r3 As==01
    c9e6:	54 3c       	jmp	$+170    	;abs 0xca90
    c9e8:	e2 43 62 00 	mov.b	#2,	&0x0062	;r3 As==10
    c9ec:	f2 40 27 00 	mov.b	#39,	&0x0064	;#0x0027
    c9f0:	64 00 
    c9f2:	4e 3c       	jmp	$+158    	;abs 0xca90
    c9f4:	3d 90 00 84 	cmp	#-31744,r13	;#0x8400
    c9f8:	25 24       	jz	$+76     	;abs 0xca44
    c9fa:	3d 90 01 84 	cmp	#-31743,r13	;#0x8401
    c9fe:	07 2c       	jc	$+16     	;abs 0xca0e
    ca00:	3d 90 80 25 	cmp	#9600,	r13	;#0x2580
    ca04:	25 24       	jz	$+76     	;abs 0xca50
    ca06:	3d 90 00 4b 	cmp	#19200,	r13	;#0x4b00
    ca0a:	22 20       	jnz	$+70     	;abs 0xca50
    ca0c:	0a 3c       	jmp	$+22     	;abs 0xca22
    ca0e:	3d 90 00 c2 	cmp	#-15872,r13	;#0xc200
    ca12:	12 24       	jz	$+38     	;abs 0xca38
    ca14:	3d 90 00 e1 	cmp	#-7936,	r13	;#0xe100
    ca18:	08 24       	jz	$+18     	;abs 0xca2a
    ca1a:	3d 90 00 96 	cmp	#-27136,r13	;#0x9600
    ca1e:	18 20       	jnz	$+50     	;abs 0xca50
    ca20:	d6 3f       	jmp	$-82     	;abs 0xc9ce
    ca22:	f2 40 34 00 	mov.b	#52,	&0x0062	;#0x0034
    ca26:	62 00 
    ca28:	d5 3f       	jmp	$-84     	;abs 0xc9d4
    ca2a:	f2 40 11 00 	mov.b	#17,	&0x0062	;#0x0011
    ca2e:	62 00 
    ca30:	f2 40 61 00 	mov.b	#97,	&0x0064	;#0x0061
    ca34:	64 00 
    ca36:	2c 3c       	jmp	$+90     	;abs 0xca90
    ca38:	f2 42 62 00 	mov.b	#8,	&0x0062	;r2 As==11
    ca3c:	f2 40 b1 ff 	mov.b	#-79,	&0x0064	;#0xffb1
    ca40:	64 00 
    ca42:	26 3c       	jmp	$+78     	;abs 0xca90
    ca44:	e2 42 62 00 	mov.b	#4,	&0x0062	;r2 As==10
    ca48:	f2 40 3b 00 	mov.b	#59,	&0x0064	;#0x003b
    ca4c:	64 00 
    ca4e:	20 3c       	jmp	$+66     	;abs 0xca90
    ca50:	f2 40 68 00 	mov.b	#104,	&0x0062	;#0x0068
    ca54:	62 00 
    ca56:	f2 40 31 00 	mov.b	#49,	&0x0064	;#0x0031
    ca5a:	64 00 
    ca5c:	19 3c       	jmp	$+52     	;abs 0xca90
    ca5e:	3d 90 00 4b 	cmp	#19200,	r13	;#0x4b00
    ca62:	0a 24       	jz	$+22     	;abs 0xca78
    ca64:	3d 90 00 e1 	cmp	#-7936,	r13	;#0xe100
    ca68:	0e 24       	jz	$+30     	;abs 0xca86
    ca6a:	f2 40 06 00 	mov.b	#6,	&0x0062	;#0x0006
    ca6e:	62 00 
    ca70:	f2 40 81 ff 	mov.b	#-127,	&0x0064	;#0xff81
    ca74:	64 00 
    ca76:	0c 3c       	jmp	$+26     	;abs 0xca90
    ca78:	f2 40 03 00 	mov.b	#3,	&0x0062	;#0x0003
    ca7c:	62 00 
    ca7e:	f2 40 41 00 	mov.b	#65,	&0x0064	;#0x0041
    ca82:	64 00 
    ca84:	05 3c       	jmp	$+12     	;abs 0xca90
    ca86:	d2 43 62 00 	mov.b	#1,	&0x0062	;r3 As==01
    ca8a:	f2 40 0f 00 	mov.b	#15,	&0x0064	;#0x000f
    ca8e:	64 00 
    ca90:	c2 43 63 00 	mov.b	#0,	&0x0063	;r3 As==00
    ca94:	f2 f0 fe ff 	and.b	#-2,	&0x0061	;#0xfffe
    ca98:	61 00 
    ca9a:	30 41       	ret			

0000ca9c <serial_init>:
    ca9c:	0d 4f       	mov	r15,	r13	
    ca9e:	3e 40 40 42 	mov	#16960,	r14	;#0x4240
    caa2:	3f 40 0f 00 	mov	#15,	r15	;#0x000f
    caa6:	b0 12 72 c9 	call	#0xc972	
    caaa:	30 41       	ret			

0000caac <serial_send>:
    caac:	c2 4f 67 00 	mov.b	r15,	&0x0067	
    cab0:	30 41       	ret			

0000cab2 <serial_send_blocking>:
    cab2:	5e 42 03 00 	mov.b	&0x0003,r14	
    cab6:	2e f3       	and	#2,	r14	;r3 As==10
    cab8:	fc 27       	jz	$-6      	;abs 0xcab2
    caba:	c2 4f 67 00 	mov.b	r15,	&0x0067	
    cabe:	30 41       	ret			

0000cac0 <serial_recv>:
    cac0:	5f 42 66 00 	mov.b	&0x0066,r15	
    cac4:	30 41       	ret			

0000cac6 <serial_recv_blocking>:
    cac6:	5f 42 03 00 	mov.b	&0x0003,r15	
    caca:	1f f3       	and	#1,	r15	;r3 As==01
    cacc:	fc 27       	jz	$-6      	;abs 0xcac6
    cace:	5f 42 66 00 	mov.b	&0x0066,r15	
    cad2:	30 41       	ret			

0000cad4 <__divhi3>:
    cad4:	0d 43       	clr	r13		
    cad6:	0f 93       	tst	r15		
    cad8:	04 34       	jge	$+10     	;abs 0xcae2
    cada:	3d 40 03 00 	mov	#3,	r13	;#0x0003
    cade:	3f e3       	inv	r15		
    cae0:	1f 53       	inc	r15		
    cae2:	0e 93       	tst	r14		
    cae4:	03 34       	jge	$+8      	;abs 0xcaec
    cae6:	5d e3       	xor.b	#1,	r13	;r3 As==01
    cae8:	3e e3       	inv	r14		
    caea:	1e 53       	inc	r14		
    caec:	0d 12       	push	r13		
    caee:	b0 12 0e cb 	call	#0xcb0e	
    caf2:	3d 41       	pop	r13		
    caf4:	6d b3       	bit.b	#2,	r13	;r3 As==10
    caf6:	02 24       	jz	$+6      	;abs 0xcafc
    caf8:	3e e3       	inv	r14		
    cafa:	1e 53       	inc	r14		
    cafc:	5d b3       	bit.b	#1,	r13	;r3 As==01
    cafe:	02 24       	jz	$+6      	;abs 0xcb04
    cb00:	3f e3       	inv	r15		
    cb02:	1f 53       	inc	r15		
    cb04:	30 41       	ret			

0000cb06 <__modhi3>:
    cb06:	b0 12 d4 ca 	call	#0xcad4	
    cb0a:	0f 4e       	mov	r14,	r15	
    cb0c:	30 41       	ret			

0000cb0e <__udivhi3>:
    cb0e:	7c 40 10 00 	mov.b	#16,	r12	;#0x0010
    cb12:	0d 4e       	mov	r14,	r13	
    cb14:	0e 43       	clr	r14		
    cb16:	0f 5f       	rla	r15		
    cb18:	0e 6e       	rlc	r14		
    cb1a:	0e 9d       	cmp	r13,	r14	
    cb1c:	02 28       	jnc	$+6      	;abs 0xcb22
    cb1e:	0e 8d       	sub	r13,	r14	
    cb20:	1f d3       	bis	#1,	r15	;r3 As==01
    cb22:	1c 83       	dec	r12		
    cb24:	f8 23       	jnz	$-14     	;abs 0xcb16
    cb26:	30 41       	ret			

0000cb28 <__umodhi3>:
    cb28:	b0 12 0e cb 	call	#0xcb0e	
    cb2c:	0f 4e       	mov	r14,	r15	
    cb2e:	30 41       	ret			

0000cb30 <_unexpected_>:
    cb30:	00 13       	reti			

Disassembly of section .rodata:

0000cb32 <_dv-0x38>:
    cb32:	0a 0d       	.word	0x0d0a;	????	
    cb34:	25 69       	addc	@r9,	r5	
    cb36:	20 00       	.word	0x0020;	????	
    cb38:	25 63       	addc	#2,	r5	;r3 As==10
    cb3a:	00 3a       	jl	$-1022   	;abs 0xc73c
    cb3c:	20 00       	.word	0x0020;	????	
    cb3e:	25 69       	addc	@r9,	r5	
    cb40:	20 25       	jz	$+578    	;abs 0xcd82
    cb42:	69 00       	.word	0x0069;	????	
    cb44:	20 57       	add	@r7,	r0	
    cb46:	4f 4e       	mov.b	r14,	r15	
    cb48:	21 21       	jnz	$+580    	;abs 0xcd8c
    cb4a:	21 21       	jnz	$+580    	;abs 0xcd8e
    cb4c:	0a 0d       	.word	0x0d0a;	????	
    cb4e:	00 20       	jnz	$+2      	;abs 0xcb50
    cb50:	4c 4f       	mov.b	r15,	r12	
    cb52:	53 54       	.word	0x5453;	????	Illegal as 2-op instr
    cb54:	20 3a       	jl	$-958    	;abs 0xc796
    cb56:	50 0a       	.word	0x0a50;	????	
    cb58:	0d 00       	.word	0x000d;	????	
    cb5a:	0a 0d       	.word	0x0d0a;	????	
    cb5c:	3f 20       	jnz	$+128    	;abs 0xcbdc
    cb5e:	25 73       	subc	#2,	r5	;r3 As==10
    cb60:	20 20       	jnz	$+66     	;abs 0xcba2
    cb62:	50 20       	jnz	$+162    	;abs 0xcc04
    cb64:	4c 00       	.word	0x004c;	????	
    cb66:	3e 20       	jnz	$+126    	;abs 0xcbe4
	...

0000cb6a <_dv>:
    cb6a:	00 ca       	bic	r10,	r0	
    cb6c:	9a 3b       	jl	$-202    	;abs 0xcaa2
    cb6e:	00 e1       	xor	r1,	r0	
    cb70:	f5 05       	.word	0x05f5;	????	
    cb72:	80 96 98 00 	cmp	r6,	152(r0)	;PC rel. 0xcc0c
    cb76:	40 42       	br	r2		
    cb78:	0f 00       	.word	0x000f;	????	
    cb7a:	a0 86 01 00 	sub	@r6,	1(r0)	;PC rel. 0xcb7d
    cb7e:	10 27       	jz	$-478    	;abs 0xc9a0
    cb80:	00 00       	.word	0x0000;	????	
    cb82:	e8 03       	.word	0x03e8;	????	
    cb84:	00 00       	.word	0x0000;	????	
    cb86:	64 00       	.word	0x0064;	????	
    cb88:	00 00       	.word	0x0000;	????	
    cb8a:	0a 00       	.word	0x000a;	????	
    cb8c:	00 00       	.word	0x0000;	????	
    cb8e:	01 00       	.word	0x0001;	????	
	...

0000cb92 <hex.1308>:
    cb92:	30 31       	jn	$+610    	;abs 0xcdf4
    cb94:	32 33       	jn	$-410    	;abs 0xc9fa
    cb96:	34 35       	jge	$+618    	;abs 0xce00
    cb98:	36 37       	jge	$-402    	;abs 0xca06
    cb9a:	38 39       	jl	$+626    	;abs 0xce0c
    cb9c:	41 42       	mov.b	r2,	r1	
    cb9e:	43 44       	.word	0x4443;	????	Illegal as 2-op instr
    cba0:	45 46       	mov.b	r6,	r5	

Disassembly of section .data:

00000200 <__data_start>:
 200:	20 21       	jnz	$+578    	;abs 0x442
 202:	01 01       	.word	0x0101;	????	
	...

00000205 <number_patterns2>:
 205:	00 c1       	bic	r1,	r0	
 207:	10 80       	Address 0x0000000000000209 is out of bounds.
sub	-1(r0),	r0	;PC rel. 0x0208
 209:	c1 00       	Address 0x0000000000000209 is out of bounds.
Address 0x000000000000020b is out of bounds.
and.b	@r15+,	-1(r15)	;0xffff(r15)

Disassembly of section .bss:

0000020a <__bss_start>:
 20a:	00 00       	.word	0x0000;	????	
 20c:	00 00       	.word	0x0000;	????	
	...

00000210 <dialIn_array>:
 210:	00 00       	.word	0x0000;	????	
	...

00000214 <number_index>:
	...

00000216 <dialIn_index>:
	...

00000218 <changeDigit>:
	...

0000021a <codeSet>:
	...

0000021c <blackPeg>:
	...

0000021e <whitePeg>:
	...

00000220 <round>:
	...

00000222 <win>:
	...

00000224 <winReset>:
	...

00000226 <pot_value>:
	...

00000228 <dialInColor>:
	...

Disassembly of section .noinit:

0000022a <__wdt_clear_value>:
	...

Disassembly of section .vectors:

0000ffe0 <__ivtbl_16>:
    ffe0:	ee c0 ee c0 	bic.b	@r0,	-16146(r14);0xc0ee(r14)
    ffe4:	f2 c2 ee c0 	bic.b	#8,	&0xc0ee	;r2 As==11
    ffe8:	ee c0 ee c0 	bic.b	@r0,	-16146(r14);0xc0ee(r14)
    ffec:	ee c0 ee c0 	bic.b	@r0,	-16146(r14);0xc0ee(r14)
    fff0:	ee c0 58 c3 	bic.b	@r0,	-15528(r14);0xc358(r14)
    fff4:	ee c0 ee c0 	bic.b	@r0,	-16146(r14);0xc0ee(r14)
    fff8:	ee c0 74 c5 	bic.b	@r0,	-14988(r14);0xc574(r14)
    fffc:	ee c0 00 c0 	bic.b	@r0,	-16384(r14);0xc000(r14)

Disassembly of section .debug_aranges:

00000000 <.debug_aranges>:
   0:	14 00       	.word	0x0014;	????	
   2:	00 00       	.word	0x0000;	????	
   4:	02 00       	.word	0x0002;	????	
   6:	00 00       	.word	0x0000;	????	
   8:	00 00       	.word	0x0000;	????	
   a:	02 00       	.word	0x0002;	????	
   c:	f2 c0 84 04 	bic.b	#1156,	&0xc03e	;#0x0484
  10:	3e c0 
  12:	aa 00       	.word	0x00aa;	????	
  14:	00 00       	.word	0x0000;	????	
  16:	00 00       	.word	0x0000;	????	
  18:	10 00       	.word	0x0010;	????	
  1a:	00 00       	.word	0x0000;	????	
  1c:	02 00       	.word	0x0002;	????	
  1e:	95 03       	.word	0x0395;	????	
  20:	00 00       	.word	0x0000;	????	
  22:	02 00       	.word	0x0002;	????	
  24:	76 c5       	bic.b	@r5+,	r6	
  26:	9e 00       	.word	0x009e;	????	
  28:	00 00       	.word	0x0000;	????	
  2a:	00 00       	.word	0x0000;	????	
  2c:	10 00       	.word	0x0010;	????	
  2e:	00 00       	.word	0x0000;	????	
  30:	02 00       	.word	0x0002;	????	
  32:	72 04       	.word	0x0472;	????	
  34:	00 00       	.word	0x0000;	????	
  36:	02 00       	.word	0x0002;	????	
  38:	14 c6 e8 00 	bic	232(r6),r4	;0x00e8(r6)
  3c:	00 00       	.word	0x0000;	????	
  3e:	00 00       	.word	0x0000;	????	
  40:	10 00       	.word	0x0010;	????	
  42:	00 00       	.word	0x0000;	????	
  44:	02 00       	.word	0x0002;	????	
  46:	18 05       	.word	0x0518;	????	
  48:	00 00       	.word	0x0000;	????	
  4a:	02 00       	.word	0x0002;	????	
  4c:	fc c6 6a 02 	bic.b	@r6+,	618(r12);0x026a(r12)
  50:	00 00       	.word	0x0000;	????	
  52:	00 00       	.word	0x0000;	????	
  54:	10 00       	.word	0x0010;	????	
  56:	00 00       	.word	0x0000;	????	
  58:	02 00       	.word	0x0002;	????	
  5a:	6c 07       	.word	0x076c;	????	
  5c:	00 00       	.word	0x0000;	????	
  5e:	02 00       	.word	0x0002;	????	
  60:	66 c9       	bic.b	@r9,	r6	
  62:	0c 00       	.word	0x000c;	????	
  64:	00 00       	.word	0x0000;	????	
  66:	00 00       	.word	0x0000;	????	
  68:	10 00       	.word	0x0010;	????	
  6a:	00 00       	.word	0x0000;	????	
  6c:	02 00       	.word	0x0002;	????	
  6e:	ca 07       	.word	0x07ca;	????	
  70:	00 00       	.word	0x0000;	????	
  72:	02 00       	.word	0x0002;	????	
  74:	72 c9       	bic.b	@r9+,	r2	
  76:	62 01       	.word	0x0162;	????	
  78:	00 00       	.word	0x0000;	????	
  7a:	00 00       	.word	0x0000;	????	
  7c:	10 00       	.word	0x0010;	????	
  7e:	00 00       	.word	0x0000;	????	
  80:	02 00       	.word	0x0002;	????	
  82:	91 09       	.word	0x0991;	????	
  84:	00 00       	.word	0x0000;	????	
  86:	02 00       	.word	0x0002;	????	
  88:	d4 ca 3a 00 	bic.b	58(r10),0(r4)	;0x003a(r10), 0x0000(r4)
  8c:	00 00 
  8e:	00 00       	.word	0x0000;	????	
  90:	10 00       	.word	0x0010;	????	
  92:	00 00       	.word	0x0000;	????	
  94:	02 00       	.word	0x0002;	????	
  96:	75 0a       	.word	0x0a75;	????	
  98:	00 00       	.word	0x0000;	????	
  9a:	02 00       	.word	0x0002;	????	
  9c:	0e cb       	bic	r11,	r14	
  9e:	22 00       	.word	0x0022;	????	
  a0:	00 00       	.word	0x0000;	????	
  a2:	00 00       	.word	0x0000;	????	
  a4:	10 00       	.word	0x0010;	????	
  a6:	00 00       	.word	0x0000;	????	
  a8:	02 00       	.word	0x0002;	????	
  aa:	59 0b       	.word	0x0b59;	????	
  ac:	00 00       	.word	0x0000;	????	
  ae:	02 00       	.word	0x0002;	????	
  b0:	00 c0       	bic	r0,	r0	
  b2:	0c 00       	.word	0x000c;	????	
  b4:	00 00       	.word	0x0000;	????	
  b6:	00 00       	.word	0x0000;	????	
  b8:	10 00       	.word	0x0010;	????	
  ba:	00 00       	.word	0x0000;	????	
  bc:	02 00       	.word	0x0002;	????	
  be:	27 0c       	.word	0x0c27;	????	
  c0:	00 00       	.word	0x0000;	????	
  c2:	02 00       	.word	0x0002;	????	
  c4:	0c c0       	bic	r0,	r12	
  c6:	04 00       	.word	0x0004;	????	
  c8:	00 00       	.word	0x0000;	????	
  ca:	00 00       	.word	0x0000;	????	
  cc:	10 00       	.word	0x0010;	????	
  ce:	00 00       	.word	0x0000;	????	
  d0:	02 00       	.word	0x0002;	????	
  d2:	f5 0c       	.word	0x0cf5;	????	
  d4:	00 00       	.word	0x0000;	????	
  d6:	02 00       	.word	0x0002;	????	
  d8:	10 c0 18 00 	bic	24(r0),	r0	;PC rel. 0x00f2
  dc:	00 00       	.word	0x0000;	????	
  de:	00 00       	.word	0x0000;	????	
  e0:	10 00       	.word	0x0010;	????	
  e2:	00 00       	.word	0x0000;	????	
  e4:	02 00       	.word	0x0002;	????	
  e6:	c3 0d       	.word	0x0dc3;	????	
  e8:	00 00       	.word	0x0000;	????	
  ea:	02 00       	.word	0x0002;	????	
  ec:	28 c0       	bic	@r0,	r8	
  ee:	16 00       	.word	0x0016;	????	
  f0:	00 00       	.word	0x0000;	????	
  f2:	00 00       	.word	0x0000;	????	
  f4:	10 00       	.word	0x0010;	????	
  f6:	00 00       	.word	0x0000;	????	
  f8:	02 00       	.word	0x0002;	????	
  fa:	91 0e       	.word	0x0e91;	????	
  fc:	00 00       	.word	0x0000;	????	
  fe:	02 00       	.word	0x0002;	????	
 100:	e8 c0 06 00 	bic.b	@r0,	6(r8)	;0x0006(r8)
 104:	00 00       	.word	0x0000;	????	
 106:	00 00       	.word	0x0000;	????	
 108:	10 00       	.word	0x0010;	????	
 10a:	00 00       	.word	0x0000;	????	
 10c:	02 00       	.word	0x0002;	????	
 10e:	5f 0f       	.word	0x0f5f;	????	
 110:	00 00       	.word	0x0000;	????	
 112:	02 00       	.word	0x0002;	????	
 114:	30 cb       	bic	@r11+,	r0	
 116:	02 00       	.word	0x0002;	????	
 118:	00 00       	.word	0x0000;	????	
	...

Disassembly of section .debug_info:

00000000 <.debug_info>:
       0:	91 03       	.word	0x0391;	????	
       2:	00 00       	.word	0x0000;	????	
       4:	02 00       	.word	0x0002;	????	
       6:	00 00       	.word	0x0000;	????	
       8:	00 00       	.word	0x0000;	????	
       a:	02 01       	.word	0x0102;	????	
       c:	a3 00       	.word	0x00a3;	????	
       e:	00 00       	.word	0x0000;	????	
      10:	01 8c       	sub	r12,	r1	
      12:	00 00       	.word	0x0000;	????	
      14:	00 e0       	xor	r0,	r0	
	...
      22:	00 00       	.word	0x0000;	????	
      24:	00 02       	.word	0x0200;	????	
      26:	02 07       	.word	0x0702;	????	
      28:	47 01       	.word	0x0147;	????	
      2a:	00 00       	.word	0x0000;	????	
      2c:	02 04       	.word	0x0402;	????	
      2e:	05 83       	sub	#0,	r5	;r3 As==00
      30:	00 00       	.word	0x0000;	????	
      32:	00 03       	.word	0x0300;	????	
      34:	02 05       	.word	0x0502;	????	
      36:	69 6e       	addc.b	@r14,	r9	
      38:	74 00       	.word	0x0074;	????	
      3a:	02 01       	.word	0x0102;	????	
      3c:	06 2b       	jnc	$-498    	;abs 0xfe4a
      3e:	01 00       	.word	0x0001;	????	
      40:	00 02       	.word	0x0200;	????	
      42:	08 05       	.word	0x0508;	????	
      44:	7e 00       	.word	0x007e;	????	
      46:	00 00       	.word	0x0000;	????	
      48:	02 01       	.word	0x0102;	????	
      4a:	08 29       	jnc	$+530    	;abs 0x25c
      4c:	01 00       	.word	0x0001;	????	
      4e:	00 02       	.word	0x0200;	????	
      50:	04 07       	.word	0x0704;	????	
      52:	42 01       	.word	0x0142;	????	
      54:	00 00       	.word	0x0000;	????	
      56:	02 08       	.word	0x0802;	????	
      58:	07 3d       	jmp	$+528    	;abs 0x268
      5a:	01 00       	.word	0x0001;	????	
      5c:	00 02       	.word	0x0200;	????	
      5e:	02 07       	.word	0x0702;	????	
      60:	65 01       	.word	0x0165;	????	
      62:	00 00       	.word	0x0000;	????	
      64:	02 01       	.word	0x0102;	????	
      66:	06 32       	jn	$-1010   	;abs 0xfc74
      68:	01 00       	.word	0x0001;	????	
      6a:	00 04       	.word	0x0400;	????	
      6c:	01 94       	cmp	r4,	r1	
      6e:	01 00       	.word	0x0001;	????	
      70:	00 01       	.word	0x0100;	????	
      72:	30 f2       	and	#8,	r0	;r2 As==11
      74:	c0 f2 c2 00 	and.b	r2,	194(r0)	;PC rel. 0x0138
      78:	00 00       	.word	0x0000;	????	
      7a:	00 ec       	xor	r12,	r0	
      7c:	00 00       	.word	0x0000;	????	
      7e:	00 05       	.word	0x0500;	????	
      80:	08 02       	.word	0x0208;	????	
      82:	00 00       	.word	0x0000;	????	
      84:	01 3c       	jmp	$+4      	;abs 0x88
      86:	ec 00       	.word	0x00ec;	????	
      88:	00 00       	.word	0x0000;	????	
      8a:	02 91       	cmp	r1,	r2	
      8c:	6e 05       	.word	0x056e;	????	
      8e:	94 01       	.word	0x0194;	????	
      90:	00 00       	.word	0x0000;	????	
      92:	01 3d       	jmp	$+516    	;abs 0x296
      94:	ec 00       	.word	0x00ec;	????	
      96:	00 00       	.word	0x0000;	????	
      98:	02 91       	cmp	r1,	r2	
      9a:	76 06       	.word	0x0676;	????	
      9c:	0e c1       	bic	r1,	r14	
      9e:	34 c1       	bic	@r1+,	r4	
      a0:	b1 00       	.word	0x00b1;	????	
      a2:	00 00       	.word	0x0000;	????	
      a4:	07 69       	addc	r9,	r7	
      a6:	00 01       	.word	0x0100;	????	
      a8:	36 33       	jn	$-402    	;abs 0xff16
      aa:	00 00       	.word	0x0000;	????	
      ac:	00 02       	.word	0x0200;	????	
      ae:	91 66 00 06 	addc	1536(r6),-16034(r1);0x0600(r6), 0xc15e(r1)
      b2:	5e c1 
      b4:	ae c1 c7 00 	bic	@r1,	199(r14);0x00c7(r14)
      b8:	00 00       	.word	0x0000;	????	
      ba:	07 69       	addc	r9,	r7	
      bc:	00 01       	.word	0x0100;	????	
      be:	3f 33       	jn	$-384    	;abs 0xff3e
      c0:	00 00       	.word	0x0000;	????	
      c2:	00 02       	.word	0x0200;	????	
      c4:	91 68 00 08 	addc	2048(r8),-15954(r1);0x0800(r8), 0xc1ae(r1)
      c8:	ae c1 
      ca:	38 c2       	bic	#8,	r8	;r2 As==11
      cc:	07 69       	addc	r9,	r7	
      ce:	00 01       	.word	0x0100;	????	
      d0:	47 33       	jn	$-368    	;abs 0xff60
      d2:	00 00       	.word	0x0000;	????	
      d4:	00 02       	.word	0x0200;	????	
      d6:	91 6a 08 b4 	addc	-19448(r10),11969(r1);0xb408(r10), 0x2ec1(r1)
      da:	c1 2e 
      dc:	c2 07       	.word	0x07c2;	????	
      de:	6a 00       	.word	0x006a;	????	
      e0:	01 48       	mov	r8,	r1	
      e2:	33 00       	.word	0x0033;	????	
      e4:	00 00       	.word	0x0000;	????	
      e6:	02 91       	cmp	r1,	r2	
      e8:	6c 00       	.word	0x006c;	????	
      ea:	00 00       	.word	0x0000;	????	
      ec:	09 33       	jn	$-492    	;abs 0xff00
      ee:	00 00       	.word	0x0000;	????	
      f0:	00 fc       	and	r12,	r0	
      f2:	00 00       	.word	0x0000;	????	
      f4:	00 0a       	.word	0x0a00;	????	
      f6:	25 00       	.word	0x0025;	????	
      f8:	00 00       	.word	0x0000;	????	
      fa:	03 00       	.word	0x0003;	????	
      fc:	0b 01       	.word	0x010b;	????	
      fe:	3a 00       	.word	0x003a;	????	
     100:	00 00       	.word	0x0000;	????	
     102:	01 67       	addc	r7,	r1	
     104:	01 33       	jn	$-508    	;abs 0xff08
     106:	00 00       	.word	0x0000;	????	
     108:	00 3e       	jmp	$-1022   	;abs 0xfd0a
     10a:	c0 e8 c0 94 	xor.b	r8,	-27456(r0);PC rel. 0x95cc
     10e:	00 00       	.word	0x0000;	????	
     110:	00 0c       	.word	0x0c00;	????	
     112:	01 08       	.word	0x0801;	????	
     114:	00 00       	.word	0x0000;	????	
     116:	00 01       	.word	0x0100;	????	
     118:	99 01       	.word	0x0199;	????	
     11a:	f2 c2 58 c3 	bic.b	#8,	&0xc358	;r2 As==11
     11e:	b8 00       	.word	0x00b8;	????	
     120:	00 00       	.word	0x0000;	????	
     122:	0c 01       	.word	0x010c;	????	
     124:	89 01       	.word	0x0189;	????	
     126:	00 00       	.word	0x0000;	????	
     128:	01 ad       	dadd	r13,	r1	
     12a:	01 58       	add	r8,	r1	
     12c:	c3 74       	subc.b	r4,	#1	;r3 As==01
     12e:	c5 e4 00 00 	xor.b	r4,	0(r5)	;0x0000(r5)
     132:	00 0d       	.word	0x0d00;	????	
     134:	01 f1       	and	r1,	r1	
     136:	01 00       	.word	0x0001;	????	
     138:	00 01       	.word	0x0100;	????	
     13a:	fd 01       	.word	0x01fd;	????	
     13c:	74 c5       	bic.b	@r5+,	r4	
     13e:	76 c5       	bic.b	@r5+,	r6	
     140:	02 71       	subc	r1,	r2	
     142:	00 0e       	.word	0x0e00;	????	
     144:	93 00       	.word	0x0093;	????	
     146:	00 00       	.word	0x0000;	????	
     148:	02 22       	jnz	$-1018   	;abs 0xfd4e
     14a:	01 91       	cmp	r1,	r1	
     14c:	00 00       	.word	0x0000;	????	
     14e:	00 55       	add	r5,	r0	
     150:	01 00       	.word	0x0001;	????	
     152:	00 01       	.word	0x0100;	????	
     154:	01 0f       	.word	0x0f01;	????	
     156:	48 00       	.word	0x0048;	????	
     158:	00 00       	.word	0x0000;	????	
     15a:	0e af       	dadd	r15,	r14	
     15c:	01 00       	.word	0x0001;	????	
     15e:	00 02       	.word	0x0200;	????	
     160:	24 01       	.word	0x0124;	????	
     162:	ad 01       	.word	0x01ad;	????	
     164:	00 00       	.word	0x0000;	????	
     166:	55 01       	.word	0x0155;	????	
     168:	00 00       	.word	0x0000;	????	
     16a:	01 01       	.word	0x0101;	????	
     16c:	0e ca       	bic	r10,	r14	
     16e:	01 00       	.word	0x0001;	????	
     170:	00 02       	.word	0x0200;	????	
     172:	d6 01       	.word	0x01d6;	????	
     174:	c8 01       	.word	0x01c8;	????	
     176:	00 00       	.word	0x0000;	????	
     178:	7e 01       	.word	0x017e;	????	
     17a:	00 00       	.word	0x0000;	????	
     17c:	01 01       	.word	0x0101;	????	
     17e:	10 55 01 00 	add	1(r5),	r0	;0x0001(r5)
     182:	00 0e       	.word	0x0e00;	????	
     184:	15 00       	.word	0x0015;	????	
     186:	00 00       	.word	0x0000;	????	
     188:	02 d8       	bis	r8,	r2	
     18a:	01 13       	reti			;return from interupt
     18c:	00 00       	.word	0x0000;	????	
     18e:	00 55       	add	r5,	r0	
     190:	01 00       	.word	0x0001;	????	
     192:	00 01       	.word	0x0100;	????	
     194:	01 0e       	.word	0x0e01;	????	
     196:	27 00       	.word	0x0027;	????	
     198:	00 00       	.word	0x0000;	????	
     19a:	02 da       	bis	r10,	r2	
     19c:	01 25       	jz	$+516    	;abs 0x3a0
     19e:	00 00       	.word	0x0000;	????	
     1a0:	00 55       	add	r5,	r0	
     1a2:	01 00       	.word	0x0001;	????	
     1a4:	00 01       	.word	0x0100;	????	
     1a6:	01 0e       	.word	0x0e01;	????	
     1a8:	7a 01       	.word	0x017a;	????	
     1aa:	00 00       	.word	0x0000;	????	
     1ac:	02 dc       	bis	r12,	r2	
     1ae:	01 78       	subc	r8,	r1	
     1b0:	01 00       	.word	0x0001;	????	
     1b2:	00 55       	add	r5,	r0	
     1b4:	01 00       	.word	0x0001;	????	
     1b6:	00 01       	.word	0x0100;	????	
     1b8:	01 0e       	.word	0x0e01;	????	
     1ba:	15 01       	.word	0x0115;	????	
     1bc:	00 00       	.word	0x0000;	????	
     1be:	02 de       	bis	r14,	r2	
     1c0:	01 13       	reti			;return from interupt
     1c2:	01 00       	.word	0x0001;	????	
     1c4:	00 55       	add	r5,	r0	
     1c6:	01 00       	.word	0x0001;	????	
     1c8:	00 01       	.word	0x0100;	????	
     1ca:	01 0e       	.word	0x0e01;	????	
     1cc:	b9 01       	.word	0x01b9;	????	
     1ce:	00 00       	.word	0x0000;	????	
     1d0:	02 e0       	xor	r0,	r2	
     1d2:	01 b7       	bit	r7,	r1	
     1d4:	01 00       	.word	0x0001;	????	
     1d6:	00 55       	add	r5,	r0	
     1d8:	01 00       	.word	0x0001;	????	
     1da:	00 01       	.word	0x0100;	????	
     1dc:	01 0e       	.word	0x0e01;	????	
     1de:	78 00       	.word	0x0078;	????	
     1e0:	00 00       	.word	0x0000;	????	
     1e2:	02 eb       	xor	r11,	r2	
     1e4:	01 76       	subc	r6,	r1	
     1e6:	00 00       	.word	0x0000;	????	
     1e8:	00 55       	add	r5,	r0	
     1ea:	01 00       	.word	0x0001;	????	
     1ec:	00 01       	.word	0x0100;	????	
     1ee:	01 0e       	.word	0x0e01;	????	
     1f0:	da 00       	.word	0x00da;	????	
     1f2:	00 00       	.word	0x0000;	????	
     1f4:	02 ed       	xor	r13,	r2	
     1f6:	01 d8       	bis	r8,	r1	
     1f8:	00 00       	.word	0x0000;	????	
     1fa:	00 55       	add	r5,	r0	
     1fc:	01 00       	.word	0x0001;	????	
     1fe:	00 01       	.word	0x0100;	????	
     200:	01 0e       	.word	0x0e01;	????	
     202:	56 01       	.word	0x0156;	????	
     204:	00 00       	.word	0x0000;	????	
     206:	02 f5       	and	r5,	r2	
     208:	01 54       	add	r4,	r1	
     20a:	01 00       	.word	0x0001;	????	
     20c:	00 55       	add	r5,	r0	
     20e:	01 00       	.word	0x0001;	????	
     210:	00 01       	.word	0x0100;	????	
     212:	01 0e       	.word	0x0e01;	????	
     214:	82 01       	.word	0x0182;	????	
     216:	00 00       	.word	0x0000;	????	
     218:	02 15       	.word	0x1502;	????	
     21a:	02 80       	sub	r0,	r2	
     21c:	01 00       	.word	0x0001;	????	
     21e:	00 25       	jz	$+514    	;abs 0x420
     220:	02 00       	.word	0x0002;	????	
     222:	00 01       	.word	0x0100;	????	
     224:	01 0f       	.word	0x0f01;	????	
     226:	25 00       	.word	0x0025;	????	
     228:	00 00       	.word	0x0000;	????	
     22a:	0e 41       	mov	r1,	r14	
     22c:	00 00       	.word	0x0000;	????	
     22e:	00 02       	.word	0x0200;	????	
     230:	17 02       	.word	0x0217;	????	
     232:	3f 00       	.word	0x003f;	????	
     234:	00 00       	.word	0x0000;	????	
     236:	25 02       	.word	0x0225;	????	
     238:	00 00       	.word	0x0000;	????	
     23a:	01 01       	.word	0x0101;	????	
     23c:	0e c0       	bic	r0,	r14	
     23e:	01 00       	.word	0x0001;	????	
     240:	00 02       	.word	0x0200;	????	
     242:	1f 02       	.word	0x021f;	????	
     244:	be 01       	.word	0x01be;	????	
     246:	00 00       	.word	0x0000;	????	
     248:	25 02       	.word	0x0225;	????	
     24a:	00 00       	.word	0x0000;	????	
     24c:	01 01       	.word	0x0101;	????	
     24e:	0e 9c       	cmp	r12,	r14	
     250:	00 00       	.word	0x0000;	????	
     252:	00 02       	.word	0x0200;	????	
     254:	86 03       	.word	0x0386;	????	
     256:	9a 00       	.word	0x009a;	????	
     258:	00 00       	.word	0x0000;	????	
     25a:	25 02       	.word	0x0225;	????	
     25c:	00 00       	.word	0x0000;	????	
     25e:	01 01       	.word	0x0101;	????	
     260:	0e 1d       	.word	0x1d0e;	????	
     262:	01 00       	.word	0x0001;	????	
     264:	00 02       	.word	0x0200;	????	
     266:	c2 03       	.word	0x03c2;	????	
     268:	1b 01       	.word	0x011b;	????	
     26a:	00 00       	.word	0x0000;	????	
     26c:	7e 01       	.word	0x017e;	????	
     26e:	00 00       	.word	0x0000;	????	
     270:	01 01       	.word	0x0101;	????	
     272:	0e 16       	.word	0x160e;	????	
     274:	02 00       	.word	0x0002;	????	
     276:	00 02       	.word	0x0200;	????	
     278:	c4 03       	.word	0x03c4;	????	
     27a:	14 02       	.word	0x0214;	????	
     27c:	00 00       	.word	0x0000;	????	
     27e:	7e 01       	.word	0x017e;	????	
     280:	00 00       	.word	0x0000;	????	
     282:	01 01       	.word	0x0101;	????	
     284:	11 1b       	.word	0x1b11;	????	
     286:	00 00       	.word	0x0000;	????	
     288:	00 01       	.word	0x0100;	????	
     28a:	19 25       	jz	$+564    	;abs 0x4be
     28c:	00 00       	.word	0x0000;	????	
     28e:	00 01       	.word	0x0100;	????	
     290:	03 03       	.word	0x0303;	????	
     292:	26 02       	.word	0x0226;	????	
     294:	09 64       	addc	r4,	r9	
     296:	00 00       	.word	0x0000;	????	
     298:	00 a4       	dadd	r4,	r0	
     29a:	02 00       	.word	0x0002;	????	
     29c:	00 0a       	.word	0x0a00;	????	
     29e:	25 00       	.word	0x0025;	????	
     2a0:	00 00       	.word	0x0000;	????	
     2a2:	04 00       	.word	0x0004;	????	
     2a4:	11 4a 00 00 	mov	0(r10),	r1	;0x0000(r10)
     2a8:	00 01       	.word	0x0100;	????	
     2aa:	1a 94 02 00 	cmp	2(r4),	r10	;0x0002(r4)
     2ae:	00 01       	.word	0x0100;	????	
     2b0:	03 03       	.word	0x0303;	????	
     2b2:	0a 02       	.word	0x020a;	????	
     2b4:	09 64       	addc	r4,	r9	
     2b6:	00 00       	.word	0x0000;	????	
     2b8:	00 c4       	bic	r4,	r0	
     2ba:	02 00       	.word	0x0002;	????	
     2bc:	00 0a       	.word	0x0a00;	????	
     2be:	25 00       	.word	0x0025;	????	
     2c0:	00 00       	.word	0x0000;	????	
     2c2:	03 00       	.word	0x0003;	????	
     2c4:	11 a0 01 00 	dadd	1(r0),	r1	;PC rel. 0x02c7
     2c8:	00 01       	.word	0x0100;	????	
     2ca:	1b b4 02 00 	bit	2(r4),	r11	;0x0002(r4)
     2ce:	00 01       	.word	0x0100;	????	
     2d0:	03 03       	.word	0x0303;	????	
     2d2:	10 02       	.word	0x0210;	????	
     2d4:	11 cf 01 00 	bic	1(r15),	r1	;0x0001(r15)
     2d8:	00 01       	.word	0x0100;	????	
     2da:	1e 94 02 00 	cmp	2(r4),	r14	;0x0002(r4)
     2de:	00 01       	.word	0x0100;	????	
     2e0:	03 03       	.word	0x0303;	????	
     2e2:	00 02       	.word	0x0200;	????	
     2e4:	11 e0 01 00 	xor	1(r0),	r1	;PC rel. 0x02e7
     2e8:	00 01       	.word	0x0100;	????	
     2ea:	1f 94 02 00 	cmp	2(r4),	r15	;0x0002(r4)
     2ee:	00 01       	.word	0x0100;	????	
     2f0:	03 03       	.word	0x0303;	????	
     2f2:	05 02       	.word	0x0205;	????	
     2f4:	11 2d       	jc	$+548    	;abs 0x518
     2f6:	00 00       	.word	0x0000;	????	
     2f8:	00 01       	.word	0x0100;	????	
     2fa:	20 33       	jn	$-446    	;abs 0x13c
     2fc:	00 00       	.word	0x0000;	????	
     2fe:	00 01       	.word	0x0100;	????	
     300:	03 03       	.word	0x0303;	????	
     302:	14 02       	.word	0x0214;	????	
     304:	11 fc 01 00 	and	1(r12),	r1	;0x0001(r12)
     308:	00 01       	.word	0x0100;	????	
     30a:	22 64       	addc	@r4,	r2	
     30c:	00 00       	.word	0x0000;	????	
     30e:	00 01       	.word	0x0100;	????	
     310:	03 03       	.word	0x0303;	????	
     312:	28 02       	.word	0x0228;	????	
     314:	11 57 00 00 	add	0(r7),	r1	;0x0000(r7)
     318:	00 01       	.word	0x0100;	????	
     31a:	23 33       	jn	$-440    	;abs 0x162
     31c:	00 00       	.word	0x0000;	????	
     31e:	00 01       	.word	0x0100;	????	
     320:	03 03       	.word	0x0303;	????	
     322:	16 02       	.word	0x0216;	????	
     324:	11 07       	.word	0x0711;	????	
     326:	01 00       	.word	0x0001;	????	
     328:	00 01       	.word	0x0100;	????	
     32a:	25 33       	jn	$-436    	;abs 0x176
     32c:	00 00       	.word	0x0000;	????	
     32e:	00 01       	.word	0x0100;	????	
     330:	03 03       	.word	0x0303;	????	
     332:	18 02       	.word	0x0218;	????	
     334:	11 00       	.word	0x0011;	????	
     336:	00 00       	.word	0x0000;	????	
     338:	00 01       	.word	0x0100;	????	
     33a:	27 33       	jn	$-432    	;abs 0x18a
     33c:	00 00       	.word	0x0000;	????	
     33e:	00 01       	.word	0x0100;	????	
     340:	03 03       	.word	0x0303;	????	
     342:	1a 02       	.word	0x021a;	????	
     344:	11 5c 01 00 	add	1(r12),	r1	;0x0001(r12)
     348:	00 01       	.word	0x0100;	????	
     34a:	2a 33       	jn	$-426    	;abs 0x1a0
     34c:	00 00       	.word	0x0000;	????	
     34e:	00 01       	.word	0x0100;	????	
     350:	03 03       	.word	0x0303;	????	
     352:	1c 02       	.word	0x021c;	????	
     354:	11 64 00 00 	addc	0(r4),	r1	;0x0000(r4)
     358:	00 01       	.word	0x0100;	????	
     35a:	2b 33       	jn	$-424    	;abs 0x1b2
     35c:	00 00       	.word	0x0000;	????	
     35e:	00 01       	.word	0x0100;	????	
     360:	03 03       	.word	0x0303;	????	
     362:	1e 02       	.word	0x021e;	????	
     364:	11 37       	jge	$-476    	;abs 0x188
     366:	01 00       	.word	0x0001;	????	
     368:	00 01       	.word	0x0100;	????	
     36a:	2c 33       	jn	$-422    	;abs 0x1c4
     36c:	00 00       	.word	0x0000;	????	
     36e:	00 01       	.word	0x0100;	????	
     370:	03 03       	.word	0x0303;	????	
     372:	20 02       	.word	0x0220;	????	
     374:	12 77 69 6e 	subc	28265(r7),r2	;0x6e69(r7)
     378:	00 01       	.word	0x0100;	????	
     37a:	2d 33       	jn	$-420    	;abs 0x1d6
     37c:	00 00       	.word	0x0000;	????	
     37e:	00 01       	.word	0x0100;	????	
     380:	03 03       	.word	0x0303;	????	
     382:	22 02       	.word	0x0222;	????	
     384:	11 6d 00 00 	addc	0(r13),	r1	;0x0000(r13)
     388:	00 01       	.word	0x0100;	????	
     38a:	2e 33       	jn	$-418    	;abs 0x1e8
     38c:	00 00       	.word	0x0000;	????	
     38e:	00 01       	.word	0x0100;	????	
     390:	03 03       	.word	0x0303;	????	
     392:	24 02       	.word	0x0224;	????	
     394:	00 d9       	bis	r9,	r0	
     396:	00 00       	.word	0x0000;	????	
     398:	00 02       	.word	0x0200;	????	
     39a:	00 0a       	.word	0x0a00;	????	
     39c:	01 00       	.word	0x0001;	????	
     39e:	00 02       	.word	0x0200;	????	
     3a0:	01 a3       	dadc	r1		
     3a2:	00 00       	.word	0x0000;	????	
     3a4:	00 01       	.word	0x0100;	????	
     3a6:	6d 02       	.word	0x026d;	????	
     3a8:	00 00       	.word	0x0000;	????	
     3aa:	e0 00       	.word	0x00e0;	????	
     3ac:	00 00       	.word	0x0000;	????	
     3ae:	76 c5       	bic.b	@r5+,	r6	
     3b0:	14 c6 78 01 	bic	376(r6),r4	;0x0178(r6)
     3b4:	00 00       	.word	0x0000;	????	
     3b6:	02 02       	.word	0x0202;	????	
     3b8:	07 47       	mov	r7,	r7	
     3ba:	01 00       	.word	0x0001;	????	
     3bc:	00 03       	.word	0x0300;	????	
     3be:	01 7d       	subc	r13,	r1	
     3c0:	02 00       	.word	0x0002;	????	
     3c2:	00 01       	.word	0x0100;	????	
     3c4:	03 01       	.word	0x0103;	????	
     3c6:	76 c5       	bic.b	@r5+,	r6	
     3c8:	14 c6 00 01 	bic	256(r6),r4	;0x0100(r6)
     3cc:	00 00       	.word	0x0000;	????	
     3ce:	5a 00       	.word	0x005a;	????	
     3d0:	00 00       	.word	0x0000;	????	
     3d2:	04 65       	addc	r5,	r4	
     3d4:	02 00       	.word	0x0002;	????	
     3d6:	00 01       	.word	0x0100;	????	
     3d8:	03 21       	jnz	$+520    	;abs 0x5e0
     3da:	00 00       	.word	0x0000;	????	
     3dc:	00 02       	.word	0x0200;	????	
     3de:	91 7a 04 52 	subc	20996(r10),2(r1)	;0x5204(r10), 0x0002(r1)
     3e2:	02 00 
     3e4:	00 01       	.word	0x0100;	????	
     3e6:	03 5a       	.word	0x5a03;	????	Illegal as 2-op instr
     3e8:	00 00       	.word	0x0000;	????	
     3ea:	00 02       	.word	0x0200;	????	
     3ec:	91 7c 00 05 	subc	1280(r12),24578(r1);0x0500(r12), 0x6002(r1)
     3f0:	02 60 
     3f2:	00 00       	.word	0x0000;	????	
     3f4:	00 06       	.word	0x0600;	????	
     3f6:	65 00       	.word	0x0065;	????	
     3f8:	00 00       	.word	0x0000;	????	
     3fa:	07 21       	jnz	$+528    	;abs 0x60a
     3fc:	00 00       	.word	0x0000;	????	
     3fe:	00 08       	.word	0x0800;	????	
     400:	3c 02       	.word	0x023c;	????	
     402:	00 00       	.word	0x0000;	????	
     404:	02 ac       	dadd	r12,	r2	
     406:	3a 02       	.word	0x023a;	????	
     408:	00 00       	.word	0x0000;	????	
     40a:	7b 00       	.word	0x007b;	????	
     40c:	00 00       	.word	0x0000;	????	
     40e:	01 01       	.word	0x0101;	????	
     410:	07 80       	sub	r0,	r7	
     412:	00 00       	.word	0x0000;	????	
     414:	00 02       	.word	0x0200;	????	
     416:	01 08       	.word	0x0801;	????	
     418:	29 01       	.word	0x0129;	????	
     41a:	00 00       	.word	0x0000;	????	
     41c:	08 30       	jn	$+18     	;abs 0x42e
     41e:	02 00       	.word	0x0002;	????	
     420:	00 02       	.word	0x0200;	????	
     422:	ae 2e       	jc	$-674    	;abs 0x180
     424:	02 00       	.word	0x0002;	????	
     426:	00 7b       	subc	r11,	r0	
     428:	00 00       	.word	0x0000;	????	
     42a:	00 01       	.word	0x0100;	????	
     42c:	01 08       	.word	0x0801;	????	
     42e:	5c 02       	.word	0x025c;	????	
     430:	00 00       	.word	0x0000;	????	
     432:	02 b0       	bit	r0,	r2	
     434:	5a 02       	.word	0x025a;	????	
     436:	00 00       	.word	0x0000;	????	
     438:	7b 00       	.word	0x007b;	????	
     43a:	00 00       	.word	0x0000;	????	
     43c:	01 01       	.word	0x0101;	????	
     43e:	08 48       	mov	r8,	r8	
     440:	02 00       	.word	0x0002;	????	
     442:	00 02       	.word	0x0200;	????	
     444:	b3 46       	mov	@r6+,	#1	;r3 As==01
     446:	02 00       	.word	0x0002;	????	
     448:	00 65       	addc	r5,	r0	
     44a:	00 00       	.word	0x0000;	????	
     44c:	00 01       	.word	0x0100;	????	
     44e:	01 08       	.word	0x0801;	????	
     450:	24 02       	.word	0x0224;	????	
     452:	00 00       	.word	0x0000;	????	
     454:	02 b5       	bit	r5,	r2	
     456:	22 02       	.word	0x0222;	????	
     458:	00 00       	.word	0x0000;	????	
     45a:	65 00       	.word	0x0065;	????	
     45c:	00 00       	.word	0x0000;	????	
     45e:	01 01       	.word	0x0101;	????	
     460:	08 75       	subc	r5,	r8	
     462:	02 00       	.word	0x0002;	????	
     464:	00 02       	.word	0x0200;	????	
     466:	b9 73 02 00 	subc	#-1,	2(r9)	;r3 As==11, 0x0002(r9)
     46a:	00 65       	addc	r5,	r0	
     46c:	00 00       	.word	0x0000;	????	
     46e:	00 01       	.word	0x0100;	????	
     470:	01 00       	.word	0x0001;	????	
     472:	a2 00       	.word	0x00a2;	????	
     474:	00 00       	.word	0x0000;	????	
     476:	02 00       	.word	0x0002;	????	
     478:	7a 01       	.word	0x017a;	????	
     47a:	00 00       	.word	0x0000;	????	
     47c:	02 01       	.word	0x0102;	????	
     47e:	a3 00       	.word	0x00a3;	????	
     480:	00 00       	.word	0x0000;	????	
     482:	01 8c       	sub	r12,	r1	
     484:	02 00       	.word	0x0002;	????	
     486:	00 e0       	xor	r0,	r0	
     488:	00 00       	.word	0x0000;	????	
     48a:	00 14       	.word	0x1400;	????	
     48c:	c6 fc c6 05 	and.b	r12,	1478(r6);0x05c6(r6)
     490:	02 00       	.word	0x0002;	????	
     492:	00 02       	.word	0x0200;	????	
     494:	04 05       	.word	0x0504;	????	
     496:	83 00       	.word	0x0083;	????	
     498:	00 00       	.word	0x0000;	????	
     49a:	02 02       	.word	0x0202;	????	
     49c:	07 47       	mov	r7,	r7	
     49e:	01 00       	.word	0x0001;	????	
     4a0:	00 03       	.word	0x0300;	????	
     4a2:	02 05       	.word	0x0502;	????	
     4a4:	69 6e       	addc.b	@r14,	r9	
     4a6:	74 00       	.word	0x0074;	????	
     4a8:	02 01       	.word	0x0102;	????	
     4aa:	06 2b       	jnc	$-498    	;abs 0x2b8
     4ac:	01 00       	.word	0x0001;	????	
     4ae:	00 02       	.word	0x0200;	????	
     4b0:	08 05       	.word	0x0508;	????	
     4b2:	7e 00       	.word	0x007e;	????	
     4b4:	00 00       	.word	0x0000;	????	
     4b6:	02 01       	.word	0x0102;	????	
     4b8:	08 29       	jnc	$+530    	;abs 0x6ca
     4ba:	01 00       	.word	0x0001;	????	
     4bc:	00 02       	.word	0x0200;	????	
     4be:	04 07       	.word	0x0704;	????	
     4c0:	42 01       	.word	0x0142;	????	
     4c2:	00 00       	.word	0x0000;	????	
     4c4:	02 08       	.word	0x0802;	????	
     4c6:	07 3d       	jmp	$+528    	;abs 0x6d6
     4c8:	01 00       	.word	0x0001;	????	
     4ca:	00 02       	.word	0x0200;	????	
     4cc:	02 07       	.word	0x0702;	????	
     4ce:	65 01       	.word	0x0165;	????	
     4d0:	00 00       	.word	0x0000;	????	
     4d2:	04 02       	.word	0x0204;	????	
     4d4:	66 00       	.word	0x0066;	????	
     4d6:	00 00       	.word	0x0000;	????	
     4d8:	02 01       	.word	0x0102;	????	
     4da:	06 32       	jn	$-1010   	;abs 0xe8
     4dc:	01 00       	.word	0x0001;	????	
     4de:	00 05       	.word	0x0500;	????	
     4e0:	01 94       	cmp	r4,	r1	
     4e2:	02 00       	.word	0x0002;	????	
     4e4:	00 01       	.word	0x0100;	????	
     4e6:	0d 01       	.word	0x010d;	????	
     4e8:	14 c6 fc c6 	bic	-14596(r6),r4	;0xc6fc(r6)
     4ec:	14 01       	.word	0x0114;	????	
     4ee:	00 00       	.word	0x0000;	????	
     4f0:	06 62       	addc	r2,	r6	
     4f2:	75 66       	addc.b	@r6+,	r5	
     4f4:	00 01       	.word	0x0100;	????	
     4f6:	0d 60       	addc	r0,	r13	
     4f8:	00 00       	.word	0x0000;	????	
     4fa:	00 02       	.word	0x0200;	????	
     4fc:	91 7c 07 6a 	subc	27143(r12),256(r1)	;0x6a07(r12), 0x0100(r1)
     500:	00 01 
     502:	0e 2f       	jc	$-482    	;abs 0x320
     504:	00 00       	.word	0x0000;	????	
     506:	00 02       	.word	0x0200;	????	
     508:	91 78 07 63 	subc	25351(r8),256(r1)	;0x6307(r8), 0x0100(r1)
     50c:	00 01 
     50e:	11 66 00 00 	addc	0(r6),	r1	;0x0000(r6)
     512:	00 02       	.word	0x0200;	????	
     514:	91 7a 00 00 	subc	0(r10),	592(r1)	;0x0000(r10), 0x0250(r1)
     518:	50 02 
     51a:	00 00       	.word	0x0000;	????	
     51c:	02 00       	.word	0x0002;	????	
     51e:	e0 01       	.word	0x01e0;	????	
     520:	00 00       	.word	0x0000;	????	
     522:	02 01       	.word	0x0102;	????	
     524:	a3 00       	.word	0x00a3;	????	
     526:	00 00       	.word	0x0000;	????	
     528:	01 1e       	.word	0x1e01;	????	
     52a:	03 00       	.word	0x0003;	????	
     52c:	00 f0       	and	r0,	r0	
     52e:	02 00       	.word	0x0002;	????	
     530:	00 fc       	and	r12,	r0	
     532:	c6 66 c9 66 	addc.b	r6,	26313(r6);0x66c9(r6)
     536:	02 00       	.word	0x0002;	????	
     538:	00 02       	.word	0x0200;	????	
     53a:	37 03       	.word	0x0337;	????	
     53c:	00 00       	.word	0x0000;	????	
     53e:	02 28       	jnc	$+6      	;abs 0x544
     540:	2c 00       	.word	0x002c;	????	
     542:	00 00       	.word	0x0000;	????	
     544:	03 02       	.word	0x0203;	????	
     546:	ba 02       	.word	0x02ba;	????	
     548:	00 00       	.word	0x0000;	????	
     54a:	02 3e       	jmp	$-1018   	;abs 0x150
     54c:	03 00       	.word	0x0003;	????	
     54e:	00 02       	.word	0x0200;	????	
     550:	66 21       	jnz	$+718    	;abs 0x81e
     552:	00 00       	.word	0x0000;	????	
     554:	00 04       	.word	0x0400;	????	
     556:	d7 02       	.word	0x02d7;	????	
     558:	00 00       	.word	0x0000;	????	
     55a:	01 59       	add	r9,	r1	
     55c:	01 fc       	and	r12,	r1	
     55e:	c6 66 c7 28 	addc.b	r6,	10439(r6);0x28c7(r6)
     562:	01 00       	.word	0x0001;	????	
     564:	00 87       	sub	r7,	r0	
     566:	00 00       	.word	0x0000;	????	
     568:	00 05       	.word	0x0500;	????	
     56a:	78 00       	.word	0x0078;	????	
     56c:	01 59       	add	r9,	r1	
     56e:	87 00       	.word	0x0087;	????	
     570:	00 00       	.word	0x0000;	????	
     572:	5c 01       	.word	0x015c;	????	
     574:	00 00       	.word	0x0000;	????	
     576:	05 64       	addc	r4,	r5	
     578:	70 00       	.word	0x0070;	????	
     57a:	01 59       	add	r9,	r1	
     57c:	8e 00       	.word	0x008e;	????	
     57e:	00 00       	.word	0x0000;	????	
     580:	78 01       	.word	0x0178;	????	
     582:	00 00       	.word	0x0000;	????	
     584:	06 63       	adc	r6		
     586:	00 01       	.word	0x0100;	????	
     588:	5b 99 00 00 	cmp.b	0(r9),	r11	;0x0000(r9)
     58c:	00 8a       	sub	r10,	r0	
     58e:	01 00       	.word	0x0001;	????	
     590:	00 06       	.word	0x0600;	????	
     592:	64 00       	.word	0x0064;	????	
     594:	01 5c       	add	r12,	r1	
     596:	87 00       	.word	0x0087;	????	
     598:	00 00       	.word	0x0000;	????	
     59a:	9e 01       	.word	0x019e;	????	
     59c:	00 00       	.word	0x0000;	????	
     59e:	00 07       	.word	0x0700;	????	
     5a0:	04 07       	.word	0x0704;	????	
     5a2:	42 01       	.word	0x0142;	????	
     5a4:	00 00       	.word	0x0000;	????	
     5a6:	08 02       	.word	0x0208;	????	
     5a8:	94 00       	.word	0x0094;	????	
     5aa:	00 00       	.word	0x0000;	????	
     5ac:	09 87       	sub	r7,	r9	
     5ae:	00 00       	.word	0x0000;	????	
     5b0:	00 07       	.word	0x0700;	????	
     5b2:	01 06       	.word	0x0601;	????	
     5b4:	32 01       	.word	0x0132;	????	
     5b6:	00 00       	.word	0x0000;	????	
     5b8:	0a ea       	xor	r10,	r10	
     5ba:	02 00       	.word	0x0002;	????	
     5bc:	00 01       	.word	0x0100;	????	
     5be:	53 01       	.word	0x0153;	????	
     5c0:	66 c7       	bic.b	@r7,	r6	
     5c2:	74 c7       	bic.b	@r7+,	r4	
     5c4:	02 71       	subc	r1,	r2	
     5c6:	02 d0       	bis	r0,	r2	
     5c8:	00 00       	.word	0x0000;	????	
     5ca:	00 05       	.word	0x0500;	????	
     5cc:	6e 00       	.word	0x006e;	????	
     5ce:	01 53       	add	#0,	r1	;r3 As==00
     5d0:	d0 00       	.word	0x00d0;	????	
     5d2:	00 00       	.word	0x0000;	????	
     5d4:	b6 01       	.word	0x01b6;	????	
     5d6:	00 00       	.word	0x0000;	????	
     5d8:	0b 68       	addc	r8,	r11	
     5da:	65 78       	subc.b	@r8,	r5	
     5dc:	00 01       	.word	0x0100;	????	
     5de:	55 e7 00 00 	xor.b	0(r7),	r5	;0x0000(r7)
     5e2:	00 03       	.word	0x0300;	????	
     5e4:	03 92       	.word	0x9203;	????	Illegal as 2-op instr
     5e6:	cb 00       	.word	0x00cb;	????	
     5e8:	07 02       	.word	0x0207;	????	
     5ea:	07 47       	mov	r7,	r7	
     5ec:	01 00       	.word	0x0001;	????	
     5ee:	00 0c       	.word	0x0c00;	????	
     5f0:	99 00       	.word	0x0099;	????	
     5f2:	00 00       	.word	0x0000;	????	
     5f4:	e7 00       	.word	0x00e7;	????	
     5f6:	00 00       	.word	0x0000;	????	
     5f8:	0d d0       	bis	r0,	r13	
     5fa:	00 00       	.word	0x0000;	????	
     5fc:	00 0f       	.word	0x0f00;	????	
     5fe:	00 09       	.word	0x0900;	????	
     600:	d7 00       	.word	0x00d7;	????	
     602:	00 00       	.word	0x0000;	????	
     604:	0e 01       	.word	0x010e;	????	
     606:	2d 03       	.word	0x032d;	????	
     608:	00 00       	.word	0x0000;	????	
     60a:	01 18       	.word	0x1801;	????	
     60c:	01 74       	subc	r4,	r1	
     60e:	c7 88 c7 c1 	sub.b	r8,	-15929(r7);0xc1c7(r7)
     612:	01 00       	.word	0x0001;	????	
     614:	00 1e       	.word	0x1e00;	????	
     616:	01 00       	.word	0x0001;	????	
     618:	00 0f       	.word	0x0f00;	????	
     61a:	9f 02       	.word	0x029f;	????	
     61c:	00 00       	.word	0x0000;	????	
     61e:	01 18       	.word	0x1801;	????	
     620:	1e 01       	.word	0x011e;	????	
     622:	00 00       	.word	0x0000;	????	
     624:	d5 01       	.word	0x01d5;	????	
     626:	00 00       	.word	0x0000;	????	
     628:	06 69       	addc	r9,	r6	
     62a:	00 01       	.word	0x0100;	????	
     62c:	1a 24       	jz	$+54     	;abs 0x662
     62e:	01 00       	.word	0x0001;	????	
     630:	00 e0       	xor	r0,	r0	
     632:	01 00       	.word	0x0001;	????	
     634:	00 00       	.word	0x0000;	????	
     636:	08 02       	.word	0x0208;	????	
     638:	99 00       	.word	0x0099;	????	
     63a:	00 00       	.word	0x0000;	????	
     63c:	10 02       	.word	0x0210;	????	
     63e:	05 69       	addc	r9,	r5	
     640:	6e 74       	subc.b	@r4,	r14	
     642:	00 0e       	.word	0x0e00;	????	
     644:	01 cc       	bic	r12,	r1	
     646:	02 00       	.word	0x0002;	????	
     648:	00 01       	.word	0x0100;	????	
     64a:	21 01       	.word	0x0121;	????	
     64c:	88 c7 02 c8 	bic	r7,	-14334(r8);0xc802(r8)
     650:	ec 01       	.word	0x01ec;	????	
     652:	00 00       	.word	0x0000;	????	
     654:	76 01       	.word	0x0176;	????	
     656:	00 00       	.word	0x0000;	????	
     658:	05 6e       	addc	r14,	r5	
     65a:	00 01       	.word	0x0100;	????	
     65c:	21 24       	jz	$+68     	;abs 0x6a0
     65e:	01 00       	.word	0x0001;	????	
     660:	00 18       	.word	0x1800;	????	
     662:	02 00       	.word	0x0002;	????	
     664:	00 11       	rra	r0		
     666:	46 03       	.word	0x0346;	????	
     668:	00 00       	.word	0x0000;	????	
     66a:	01 23       	jnz	$-508    	;abs 0x46e
     66c:	76 01       	.word	0x0176;	????	
     66e:	00 00       	.word	0x0000;	????	
     670:	02 91       	cmp	r1,	r2	
     672:	58 06       	.word	0x0658;	????	
     674:	69 00       	.word	0x0069;	????	
     676:	01 24       	jz	$+4      	;abs 0x67a
     678:	24 01       	.word	0x0124;	????	
     67a:	00 00       	.word	0x0000;	????	
     67c:	3f 02       	.word	0x023f;	????	
     67e:	00 00       	.word	0x0000;	????	
     680:	06 6a       	addc	r10,	r6	
     682:	00 01       	.word	0x0100;	????	
     684:	25 24       	jz	$+76     	;abs 0x6d0
     686:	01 00       	.word	0x0001;	????	
     688:	00 4a       	br	r10		
     68a:	02 00       	.word	0x0002;	????	
     68c:	00 00       	.word	0x0000;	????	
     68e:	0c 24       	jz	$+26     	;abs 0x6a8
     690:	01 00       	.word	0x0001;	????	
     692:	00 86       	sub	r6,	r0	
     694:	01 00       	.word	0x0001;	????	
     696:	00 0d       	.word	0x0d00;	????	
     698:	d0 00       	.word	0x00d0;	????	
     69a:	00 00       	.word	0x0000;	????	
     69c:	0f 00       	.word	0x000f;	????	
     69e:	0e 01       	.word	0x010e;	????	
     6a0:	a4 02       	.word	0x02a4;	????	
     6a2:	00 00       	.word	0x0000;	????	
     6a4:	01 36       	jge	$-1020   	;abs 0x2a8
     6a6:	01 02       	.word	0x0201;	????	
     6a8:	c8 3c       	jmp	$+402    	;abs 0x83a
     6aa:	c8 57 02 00 	add.b	r7,	2(r8)	;0x0002(r8)
     6ae:	00 c5       	bic	r5,	r0	
     6b0:	01 00       	.word	0x0001;	????	
     6b2:	00 05       	.word	0x0500;	????	
     6b4:	6e 00       	.word	0x006e;	????	
     6b6:	01 36       	jge	$-1020   	;abs 0x2ba
     6b8:	24 01       	.word	0x0124;	????	
     6ba:	00 00       	.word	0x0000;	????	
     6bc:	73 02       	.word	0x0273;	????	
     6be:	00 00       	.word	0x0000;	????	
     6c0:	0f e5       	xor	r5,	r15	
     6c2:	02 00       	.word	0x0002;	????	
     6c4:	00 01       	.word	0x0100;	????	
     6c6:	36 24       	jz	$+110    	;abs 0x734
     6c8:	01 00       	.word	0x0001;	????	
     6ca:	00 85       	sub	r5,	r0	
     6cc:	02 00       	.word	0x0002;	????	
     6ce:	00 06       	.word	0x0600;	????	
     6d0:	69 00       	.word	0x0069;	????	
     6d2:	01 38       	jl	$+4      	;abs 0x6d6
     6d4:	24 01       	.word	0x0124;	????	
     6d6:	00 00       	.word	0x0000;	????	
     6d8:	90 02       	.word	0x0290;	????	
     6da:	00 00       	.word	0x0000;	????	
     6dc:	00 0e       	.word	0x0e00;	????	
     6de:	01 af       	dadd	r15,	r1	
     6e0:	02 00       	.word	0x0002;	????	
     6e2:	00 01       	.word	0x0100;	????	
     6e4:	6a 01       	.word	0x016a;	????	
     6e6:	3c c8       	bic	@r8+,	r12	
     6e8:	66 c9       	bic.b	@r9,	r6	
     6ea:	a2 02       	.word	0x02a2;	????	
     6ec:	00 00       	.word	0x0000;	????	
     6ee:	28 02       	.word	0x0228;	????	
     6f0:	00 00       	.word	0x0000;	????	
     6f2:	0f 26       	jz	$-992    	;abs 0x312
     6f4:	03 00       	.word	0x0003;	????	
     6f6:	00 01       	.word	0x0100;	????	
     6f8:	6a 1e       	.word	0x1e6a;	????	
     6fa:	01 00       	.word	0x0001;	????	
     6fc:	00 ce       	bic	r14,	r0	
     6fe:	02 00       	.word	0x0002;	????	
     700:	00 12       	push	r0		
     702:	06 63       	adc	r6		
     704:	00 01       	.word	0x0100;	????	
     706:	6c 99       	cmp.b	@r9,	r12	
     708:	00 00       	.word	0x0000;	????	
     70a:	00 03       	.word	0x0300;	????	
     70c:	03 00       	.word	0x0003;	????	
     70e:	00 06       	.word	0x0600;	????	
     710:	69 00       	.word	0x0069;	????	
     712:	01 6d       	addc	r13,	r1	
     714:	24 01       	.word	0x0124;	????	
     716:	00 00       	.word	0x0000;	????	
     718:	70 03       	.word	0x0370;	????	
     71a:	00 00       	.word	0x0000;	????	
     71c:	06 6e       	addc	r14,	r6	
     71e:	00 01       	.word	0x0100;	????	
     720:	6e 28       	jnc	$+222    	;abs 0x7fe
     722:	02 00       	.word	0x0002;	????	
     724:	00 92       	cmp	r2,	r0	
     726:	03 00       	.word	0x0003;	????	
     728:	00 06       	.word	0x0600;	????	
     72a:	61 00       	.word	0x0061;	????	
     72c:	01 70       	subc	r0,	r1	
     72e:	32 00       	.word	0x0032;	????	
     730:	00 00       	.word	0x0000;	????	
     732:	bd 03       	.word	0x03bd;	????	
     734:	00 00       	.word	0x0000;	????	
     736:	13 dd       	.word	0xdd13;	????	Illegal as 2-op instr
     738:	02 00       	.word	0x0002;	????	
     73a:	00 01       	.word	0x0100;	????	
     73c:	95 52 c9 00 	add	&0x00c9,1031(r5);0x0407(r5)
     740:	07 04 
     742:	05 83       	sub	#0,	r5	;r3 As==00
     744:	00 00       	.word	0x0000;	????	
     746:	00 0c       	.word	0x0c00;	????	
     748:	87 00       	.word	0x0087;	????	
     74a:	00 00       	.word	0x0000;	????	
     74c:	3f 02       	.word	0x023f;	????	
     74e:	00 00       	.word	0x0000;	????	
     750:	0d d0       	bis	r0,	r13	
     752:	00 00       	.word	0x0000;	????	
     754:	00 09       	.word	0x0900;	????	
     756:	00 0b       	.word	0x0b00;	????	
     758:	5f 64 76 00 	addc.b	118(r4),r15	;0x0076(r4)
     75c:	01 44       	mov	r4,	r1	
     75e:	4e 02       	.word	0x024e;	????	
     760:	00 00       	.word	0x0000;	????	
     762:	03 03       	.word	0x0303;	????	
     764:	6a cb       	bic.b	@r11,	r10	
     766:	09 2f       	jc	$-492    	;abs 0x57a
     768:	02 00       	.word	0x0002;	????	
     76a:	00 00       	.word	0x0000;	????	
     76c:	5a 00       	.word	0x005a;	????	
     76e:	00 00       	.word	0x0000;	????	
     770:	02 00       	.word	0x0002;	????	
     772:	e0 02       	.word	0x02e0;	????	
     774:	00 00       	.word	0x0000;	????	
     776:	02 01       	.word	0x0102;	????	
     778:	a3 00       	.word	0x00a3;	????	
     77a:	00 00       	.word	0x0000;	????	
     77c:	01 61       	rlc	r1		
     77e:	03 00       	.word	0x0003;	????	
     780:	00 f0       	and	r0,	r0	
     782:	02 00       	.word	0x0002;	????	
     784:	00 66       	addc	r6,	r0	
     786:	c9 72 c9 71 	subc.b	r2,	29129(r9);0x71c9(r9)
     78a:	03 00       	.word	0x0003;	????	
     78c:	00 02       	.word	0x0200;	????	
     78e:	01 56       	add	r6,	r1	
     790:	03 00       	.word	0x0003;	????	
     792:	00 01       	.word	0x0100;	????	
     794:	17 01       	.word	0x0117;	????	
     796:	66 c9       	bic.b	@r9,	r6	
     798:	6c c9       	bic.b	@r9,	r12	
     79a:	02 71       	subc	r1,	r2	
     79c:	02 43       	clr	r2		
     79e:	00 00       	.word	0x0000;	????	
     7a0:	00 03       	.word	0x0300;	????	
     7a2:	63 00       	.word	0x0063;	????	
     7a4:	01 17       	.word	0x1701;	????	
     7a6:	43 00       	.word	0x0043;	????	
     7a8:	00 00       	.word	0x0000;	????	
     7aa:	0e 04       	.word	0x040e;	????	
     7ac:	00 00       	.word	0x0000;	????	
     7ae:	00 04       	.word	0x0400;	????	
     7b0:	01 06       	.word	0x0601;	????	
     7b2:	32 01       	.word	0x0132;	????	
     7b4:	00 00       	.word	0x0000;	????	
     7b6:	05 01       	.word	0x0105;	????	
     7b8:	4d 03       	.word	0x034d;	????	
     7ba:	00 00       	.word	0x0000;	????	
     7bc:	01 1c       	.word	0x1c01;	????	
     7be:	43 00       	.word	0x0043;	????	
     7c0:	00 00       	.word	0x0000;	????	
     7c2:	6c c9       	bic.b	@r9,	r12	
     7c4:	72 c9       	bic.b	@r9+,	r2	
     7c6:	02 71       	subc	r1,	r2	
     7c8:	02 00       	.word	0x0002;	????	
     7ca:	c3 01       	.word	0x01c3;	????	
     7cc:	00 00       	.word	0x0000;	????	
     7ce:	02 00       	.word	0x0002;	????	
     7d0:	3a 03       	.word	0x033a;	????	
     7d2:	00 00       	.word	0x0000;	????	
     7d4:	02 01       	.word	0x0102;	????	
     7d6:	a3 00       	.word	0x00a3;	????	
     7d8:	00 00       	.word	0x0000;	????	
     7da:	01 8e       	sub	r14,	r1	
     7dc:	03 00       	.word	0x0003;	????	
     7de:	00 af       	dadd	r15,	r0	
     7e0:	03 00       	.word	0x0003;	????	
     7e2:	00 72       	subc	r2,	r0	
     7e4:	c9 d4 ca b2 	bis.b	r4,	-19766(r9);0xb2ca(r9)
     7e8:	03 00       	.word	0x0003;	????	
     7ea:	00 02       	.word	0x0200;	????	
     7ec:	02 07       	.word	0x0702;	????	
     7ee:	47 01       	.word	0x0147;	????	
     7f0:	00 00       	.word	0x0000;	????	
     7f2:	02 01       	.word	0x0102;	????	
     7f4:	06 2b       	jnc	$-498    	;abs 0x602
     7f6:	01 00       	.word	0x0001;	????	
     7f8:	00 03       	.word	0x0300;	????	
     7fa:	02 05       	.word	0x0502;	????	
     7fc:	69 6e       	addc.b	@r14,	r9	
     7fe:	74 00       	.word	0x0074;	????	
     800:	02 04       	.word	0x0402;	????	
     802:	05 83       	sub	#0,	r5	;r3 As==00
     804:	00 00       	.word	0x0000;	????	
     806:	00 02       	.word	0x0200;	????	
     808:	08 05       	.word	0x0508;	????	
     80a:	7e 00       	.word	0x007e;	????	
     80c:	00 00       	.word	0x0000;	????	
     80e:	02 01       	.word	0x0102;	????	
     810:	08 29       	jnc	$+530    	;abs 0xa22
     812:	01 00       	.word	0x0001;	????	
     814:	00 02       	.word	0x0200;	????	
     816:	04 07       	.word	0x0704;	????	
     818:	42 01       	.word	0x0142;	????	
     81a:	00 00       	.word	0x0000;	????	
     81c:	02 08       	.word	0x0802;	????	
     81e:	07 3d       	jmp	$+528    	;abs 0xa2e
     820:	01 00       	.word	0x0001;	????	
     822:	00 04       	.word	0x0400;	????	
     824:	01 20       	jnz	$+4      	;abs 0x828
     826:	04 00       	.word	0x0004;	????	
     828:	00 01       	.word	0x0100;	????	
     82a:	2a 01       	.word	0x012a;	????	
     82c:	72 c9       	bic.b	@r9+,	r2	
     82e:	9c ca 02 71 	bic	28930(r10),-29438(r12);0x7102(r10), 0x8d02(r12)
     832:	02 8d 
     834:	00 00       	.word	0x0000;	????	
     836:	00 05       	.word	0x0500;	????	
     838:	70 03       	.word	0x0370;	????	
     83a:	00 00       	.word	0x0000;	????	
     83c:	01 2a       	jnc	$-1020   	;abs 0x440
     83e:	36 00       	.word	0x0036;	????	
     840:	00 00       	.word	0x0000;	????	
     842:	06 5e       	add	r14,	r6	
     844:	93 02       	.word	0x0293;	????	
     846:	5f 93       	cmp.b	#1,	r15	;r3 As==01
     848:	02 05       	.word	0x0502;	????	
     84a:	17 04       	.word	0x0417;	????	
     84c:	00 00       	.word	0x0000;	????	
     84e:	01 2a       	jnc	$-1020   	;abs 0x452
     850:	21 00       	.word	0x0021;	????	
     852:	00 00       	.word	0x0000;	????	
     854:	01 5d       	add	r13,	r1	
     856:	00 04       	.word	0x0400;	????	
     858:	01 3c       	jmp	$+4      	;abs 0x85c
     85a:	04 00       	.word	0x0004;	????	
     85c:	00 01       	.word	0x0100;	????	
     85e:	25 01       	.word	0x0125;	????	
     860:	9c ca ac ca 	bic	-13652(r10),28930(r12);0xcaac(r10), 0x7102(r12)
     864:	02 71 
     866:	02 b1       	bit	r1,	r2	
     868:	00 00       	.word	0x0000;	????	
     86a:	00 06       	.word	0x0600;	????	
     86c:	17 04       	.word	0x0417;	????	
     86e:	00 00       	.word	0x0000;	????	
     870:	01 25       	jz	$+516    	;abs 0xa74
     872:	21 00       	.word	0x0021;	????	
     874:	00 00       	.word	0x0000;	????	
     876:	19 04       	.word	0x0419;	????	
     878:	00 00       	.word	0x0000;	????	
     87a:	00 04       	.word	0x0400;	????	
     87c:	01 f5       	and	r5,	r1	
     87e:	03 00       	.word	0x0003;	????	
     880:	00 01       	.word	0x0100;	????	
     882:	5d 01       	.word	0x015d;	????	
     884:	ac ca b2 ca 	bic	@r10,	-13646(r12);0xcab2(r12)
     888:	02 71       	subc	r1,	r2	
     88a:	02 d3       	bis	#0,	r2	;r3 As==00
     88c:	00 00       	.word	0x0000;	????	
     88e:	00 05       	.word	0x0500;	????	
     890:	12 04       	.word	0x0412;	????	
     892:	00 00       	.word	0x0000;	????	
     894:	01 5d       	add	r13,	r1	
     896:	44 00       	.word	0x0044;	????	
     898:	00 00       	.word	0x0000;	????	
     89a:	01 5f       	add	r15,	r1	
     89c:	00 04       	.word	0x0400;	????	
     89e:	01 53       	add	#0,	r1	;r3 As==00
     8a0:	04 00       	.word	0x0004;	????	
     8a2:	00 01       	.word	0x0100;	????	
     8a4:	62 01       	.word	0x0162;	????	
     8a6:	b2 ca c0 ca 	bic	@r10+,	&0xcac0	
     8aa:	02 71       	subc	r1,	r2	
     8ac:	02 f5       	and	r5,	r2	
     8ae:	00 00       	.word	0x0000;	????	
     8b0:	00 05       	.word	0x0500;	????	
     8b2:	12 04       	.word	0x0412;	????	
     8b4:	00 00       	.word	0x0000;	????	
     8b6:	01 62       	addc	r2,	r1	
     8b8:	44 00       	.word	0x0044;	????	
     8ba:	00 00       	.word	0x0000;	????	
     8bc:	01 5f       	add	r15,	r1	
     8be:	00 07       	.word	0x0700;	????	
     8c0:	01 e9       	xor	r9,	r1	
     8c2:	03 00       	.word	0x0003;	????	
     8c4:	00 01       	.word	0x0100;	????	
     8c6:	68 44       	mov.b	@r4,	r8	
     8c8:	00 00       	.word	0x0000;	????	
     8ca:	00 c0       	bic	r0,	r0	
     8cc:	ca c6 ca 02 	bic.b	r6,	714(r10);0x02ca(r10)
     8d0:	71 02       	.word	0x0271;	????	
     8d2:	07 01       	.word	0x0107;	????	
     8d4:	79 03       	.word	0x0379;	????	
     8d6:	00 00       	.word	0x0000;	????	
     8d8:	01 6d       	addc	r13,	r1	
     8da:	44 00       	.word	0x0044;	????	
     8dc:	00 00       	.word	0x0000;	????	
     8de:	c6 ca d4 ca 	bic.b	r10,	-13612(r6);0xcad4(r6)
     8e2:	02 71       	subc	r1,	r2	
     8e4:	02 08       	.word	0x0802;	????	
     8e6:	6a 04       	.word	0x046a;	????	
     8e8:	00 00       	.word	0x0000;	????	
     8ea:	02 9e       	cmp	r14,	r2	
     8ec:	68 04       	.word	0x0468;	????	
     8ee:	00 00       	.word	0x0000;	????	
     8f0:	2c 01       	.word	0x012c;	????	
     8f2:	00 00       	.word	0x0000;	????	
     8f4:	01 01       	.word	0x0101;	????	
     8f6:	09 44       	mov	r4,	r9	
     8f8:	00 00       	.word	0x0000;	????	
     8fa:	00 0a       	.word	0x0a00;	????	
     8fc:	0c 04       	.word	0x040c;	????	
     8fe:	00 00       	.word	0x0000;	????	
     900:	02 e2       	xor	r2,	r2	
     902:	01 0a       	.word	0x0a01;	????	
     904:	04 00       	.word	0x0004;	????	
     906:	00 2c       	jc	$+2      	;abs 0x908
     908:	01 00       	.word	0x0001;	????	
     90a:	00 01       	.word	0x0100;	????	
     90c:	01 0a       	.word	0x0a01;	????	
     90e:	03 04       	.word	0x0403;	????	
     910:	00 00       	.word	0x0000;	????	
     912:	02 e4       	xor	r4,	r2	
     914:	01 01       	.word	0x0101;	????	
     916:	04 00       	.word	0x0004;	????	
     918:	00 2c       	jc	$+2      	;abs 0x91a
     91a:	01 00       	.word	0x0001;	????	
     91c:	00 01       	.word	0x0100;	????	
     91e:	01 0a       	.word	0x0a01;	????	
     920:	e0 03       	.word	0x03e0;	????	
     922:	00 00       	.word	0x0000;	????	
     924:	02 af       	dadd	r15,	r2	
     926:	02 de       	bis	r14,	r2	
     928:	03 00       	.word	0x0003;	????	
     92a:	00 2c       	jc	$+2      	;abs 0x92c
     92c:	01 00       	.word	0x0001;	????	
     92e:	00 01       	.word	0x0100;	????	
     930:	01 0a       	.word	0x0a01;	????	
     932:	71 04       	.word	0x0471;	????	
     934:	00 00       	.word	0x0000;	????	
     936:	02 b1       	bit	r1,	r2	
     938:	02 6f       	addc	r15,	r2	
     93a:	04 00       	.word	0x0004;	????	
     93c:	00 2c       	jc	$+2      	;abs 0x93e
     93e:	01 00       	.word	0x0001;	????	
     940:	00 01       	.word	0x0100;	????	
     942:	01 0a       	.word	0x0a01;	????	
     944:	7b 04       	.word	0x047b;	????	
     946:	00 00       	.word	0x0000;	????	
     948:	02 b3       	bit	#0,	r2	;r3 As==00
     94a:	02 79       	subc	r9,	r2	
     94c:	04 00       	.word	0x0004;	????	
     94e:	00 2c       	jc	$+2      	;abs 0x950
     950:	01 00       	.word	0x0001;	????	
     952:	00 01       	.word	0x0100;	????	
     954:	01 0a       	.word	0x0a01;	????	
     956:	4a 04       	.word	0x044a;	????	
     958:	00 00       	.word	0x0000;	????	
     95a:	02 b5       	bit	r5,	r2	
     95c:	02 48       	mov	r8,	r2	
     95e:	04 00       	.word	0x0004;	????	
     960:	00 2c       	jc	$+2      	;abs 0x962
     962:	01 00       	.word	0x0001;	????	
     964:	00 01       	.word	0x0100;	????	
     966:	01 0a       	.word	0x0a01;	????	
     968:	a5 03       	.word	0x03a5;	????	
     96a:	00 00       	.word	0x0000;	????	
     96c:	02 b9       	bit	r9,	r2	
     96e:	02 a3       	dadc	r2		
     970:	03 00       	.word	0x0003;	????	
     972:	00 af       	dadd	r15,	r0	
     974:	01 00       	.word	0x0001;	????	
     976:	00 01       	.word	0x0100;	????	
     978:	01 0b       	.word	0x0b01;	????	
     97a:	2c 01       	.word	0x012c;	????	
     97c:	00 00       	.word	0x0000;	????	
     97e:	0a 32       	jn	$-1002   	;abs 0x594
     980:	04 00       	.word	0x0004;	????	
     982:	00 02       	.word	0x0200;	????	
     984:	bb 02       	.word	0x02bb;	????	
     986:	30 04       	.word	0x0430;	????	
     988:	00 00       	.word	0x0000;	????	
     98a:	2c 01       	.word	0x012c;	????	
     98c:	00 00       	.word	0x0000;	????	
     98e:	01 01       	.word	0x0101;	????	
     990:	00 e0       	xor	r0,	r0	
     992:	00 00       	.word	0x0000;	????	
     994:	00 02       	.word	0x0200;	????	
     996:	00 e4       	xor	r4,	r0	
     998:	03 00       	.word	0x0003;	????	
     99a:	00 02       	.word	0x0200;	????	
     99c:	01 73       	sbc	r1		
     99e:	04 00       	.word	0x0004;	????	
     9a0:	00 d4       	bis	r4,	r0	
     9a2:	ca 0e       	.word	0x0eca;	????	
     9a4:	cb 2f       	jc	$-104    	;abs 0x93c
     9a6:	62 75       	subc.b	@r5,	r2	
     9a8:	69 6c       	addc.b	@r12,	r9	
     9aa:	64 2f       	jc	$-310    	;abs 0x874
     9ac:	67 63       	addc.b	#2,	r7	;r3 As==10
     9ae:	63 2d       	jc	$+712    	;abs 0xc76
     9b0:	6d 73       	subc.b	#2,	r13	;r3 As==10
     9b2:	70 34       	jge	$+226    	;abs 0xa94
     9b4:	33 30       	jn	$+104    	;abs 0xa1c
     9b6:	2d 52       	add	#4,	r13	;r2 As==10
     9b8:	32 61       	addc	@r1+,	r2	
     9ba:	38 4e       	mov	@r14+,	r8	
     9bc:	33 2f       	jc	$-408    	;abs 0x824
     9be:	67 63       	addc.b	#2,	r7	;r3 As==10
     9c0:	63 2d       	jc	$+712    	;abs 0xc88
     9c2:	6d 73       	subc.b	#2,	r13	;r3 As==10
     9c4:	70 34       	jge	$+226    	;abs 0xaa6
     9c6:	33 30       	jn	$+104    	;abs 0xa2e
     9c8:	2d 34       	jge	$+92     	;abs 0xa24
     9ca:	2e 36       	jge	$-930    	;abs 0x628
     9cc:	2e 33       	jn	$-418    	;abs 0x82a
     9ce:	7e 6d       	addc.b	@r13+,	r14	
     9d0:	73 70       	.word	0x7073;	????	Illegal as 2-op instr
     9d2:	67 63       	addc.b	#2,	r7	;r3 As==10
     9d4:	63 2d       	jc	$+712    	;abs 0xc9c
     9d6:	32 30       	jn	$+102    	;abs 0xa3c
     9d8:	31 32       	jn	$-924    	;abs 0x63c
     9da:	30 34       	jge	$+98     	;abs 0xa3c
     9dc:	30 36       	jge	$-926    	;abs 0x63e
     9de:	2f 2e       	jc	$-928    	;abs 0x63e
     9e0:	2f 67       	addc	@r7,	r15	
     9e2:	63 63       	.word	0x6363;	????	Illegal as 2-op instr
     9e4:	2d 34       	jge	$+92     	;abs 0xa40
     9e6:	2e 36       	jge	$-930    	;abs 0x644
     9e8:	2e 33       	jn	$-418    	;abs 0x846
     9ea:	2f 6c       	addc	@r12,	r15	
     9ec:	69 62       	addc.b	#4,	r9	;r2 As==10
     9ee:	67 63       	addc.b	#2,	r7	;r3 As==10
     9f0:	63 2f       	jc	$-312    	;abs 0x8b8
     9f2:	2e 2e       	jc	$-930    	;abs 0x650
     9f4:	2f 67       	addc	@r7,	r15	
     9f6:	63 63       	.word	0x6363;	????	Illegal as 2-op instr
     9f8:	2f 63       	addc	#2,	r15	;r3 As==10
     9fa:	6f 6e       	addc.b	@r14,	r15	
     9fc:	66 69       	addc.b	@r9,	r6	
     9fe:	67 2f       	jc	$-304    	;abs 0x8ce
     a00:	6d 73       	subc.b	#2,	r13	;r3 As==10
     a02:	70 34       	jge	$+226    	;abs 0xae4
     a04:	33 30       	jn	$+104    	;abs 0xa6c
     a06:	2f 6c       	addc	@r12,	r15	
     a08:	69 62       	addc.b	#4,	r9	;r2 As==10
     a0a:	67 63       	addc.b	#2,	r7	;r3 As==10
     a0c:	63 2e       	jc	$-824    	;abs 0x6d4
     a0e:	53 00       	.word	0x0053;	????	
     a10:	2f 62       	addc	#4,	r15	;r2 As==10
     a12:	75 69       	addc.b	@r9+,	r5	
     a14:	6c 64       	addc.b	@r4,	r12	
     a16:	2f 67       	addc	@r7,	r15	
     a18:	63 63       	.word	0x6363;	????	Illegal as 2-op instr
     a1a:	2d 6d       	addc	@r13,	r13	
     a1c:	73 70       	.word	0x7073;	????	Illegal as 2-op instr
     a1e:	34 33       	jn	$-406    	;abs 0x888
     a20:	30 2d       	jc	$+610    	;abs 0xc82
     a22:	52 32       	jn	$-858    	;abs 0x6c8
     a24:	61 38       	jl	$+196    	;abs 0xae8
     a26:	4e 33       	jn	$-354    	;abs 0x8c4
     a28:	2f 67       	addc	@r7,	r15	
     a2a:	63 63       	.word	0x6363;	????	Illegal as 2-op instr
     a2c:	2d 6d       	addc	@r13,	r13	
     a2e:	73 70       	.word	0x7073;	????	Illegal as 2-op instr
     a30:	34 33       	jn	$-406    	;abs 0x89a
     a32:	30 2d       	jc	$+610    	;abs 0xc94
     a34:	34 2e       	jc	$-918    	;abs 0x69e
     a36:	36 2e       	jc	$-914    	;abs 0x6a4
     a38:	33 7e       	.word	0x7e33;	????	Illegal as 2-op instr
     a3a:	6d 73       	subc.b	#2,	r13	;r3 As==10
     a3c:	70 67       	addc.b	@r7+,	r0	
     a3e:	63 63       	.word	0x6363;	????	Illegal as 2-op instr
     a40:	2d 32       	jn	$-932    	;abs 0x69c
     a42:	30 31       	jn	$+610    	;abs 0xca4
     a44:	32 30       	jn	$+102    	;abs 0xaaa
     a46:	34 30       	jn	$+106    	;abs 0xab0
     a48:	36 2f       	jc	$-402    	;abs 0x8b6
     a4a:	62 75       	subc.b	@r5,	r2	
     a4c:	69 6c       	addc.b	@r12,	r9	
     a4e:	64 2d       	jc	$+714    	;abs 0xd18
     a50:	72 65       	addc.b	@r5+,	r2	
     a52:	73 75       	.word	0x7573;	????	Illegal as 2-op instr
     a54:	6c 74       	subc.b	@r4,	r12	
     a56:	2f 6d       	addc	@r13,	r15	
     a58:	73 70       	.word	0x7073;	????	Illegal as 2-op instr
     a5a:	34 33       	jn	$-406    	;abs 0x8c4
     a5c:	30 2f       	jc	$-414    	;abs 0x8be
     a5e:	6c 69       	addc.b	@r9,	r12	
     a60:	62 67       	addc.b	@r7,	r2	
     a62:	63 63       	.word	0x6363;	????	Illegal as 2-op instr
     a64:	00 47       	br	r7		
     a66:	4e 55       	add.b	r5,	r14	
     a68:	20 41       	br	@r1		
     a6a:	53 20       	jnz	$+168    	;abs 0xb12
     a6c:	32 2e       	jc	$-922    	;abs 0x6d2
     a6e:	32 31       	jn	$+614    	;abs 0xcd4
     a70:	2e 31       	jn	$+606    	;abs 0xcce
     a72:	00 01       	.word	0x0100;	????	
     a74:	80 e0 00 00 	xor	r0,	0(r0)	;PC rel. 0x0a76
     a78:	00 02       	.word	0x0200;	????	
     a7a:	00 f8       	and	r8,	r0	
     a7c:	03 00       	.word	0x0003;	????	
     a7e:	00 02       	.word	0x0200;	????	
     a80:	01 25       	jz	$+516    	;abs 0xc84
     a82:	05 00       	.word	0x0005;	????	
     a84:	00 0e       	.word	0x0e00;	????	
     a86:	cb 30       	jn	$+408    	;abs 0xc1e
     a88:	cb 2f       	jc	$-104    	;abs 0xa20
     a8a:	62 75       	subc.b	@r5,	r2	
     a8c:	69 6c       	addc.b	@r12,	r9	
     a8e:	64 2f       	jc	$-310    	;abs 0x958
     a90:	67 63       	addc.b	#2,	r7	;r3 As==10
     a92:	63 2d       	jc	$+712    	;abs 0xd5a
     a94:	6d 73       	subc.b	#2,	r13	;r3 As==10
     a96:	70 34       	jge	$+226    	;abs 0xb78
     a98:	33 30       	jn	$+104    	;abs 0xb00
     a9a:	2d 52       	add	#4,	r13	;r2 As==10
     a9c:	32 61       	addc	@r1+,	r2	
     a9e:	38 4e       	mov	@r14+,	r8	
     aa0:	33 2f       	jc	$-408    	;abs 0x908
     aa2:	67 63       	addc.b	#2,	r7	;r3 As==10
     aa4:	63 2d       	jc	$+712    	;abs 0xd6c
     aa6:	6d 73       	subc.b	#2,	r13	;r3 As==10
     aa8:	70 34       	jge	$+226    	;abs 0xb8a
     aaa:	33 30       	jn	$+104    	;abs 0xb12
     aac:	2d 34       	jge	$+92     	;abs 0xb08
     aae:	2e 36       	jge	$-930    	;abs 0x70c
     ab0:	2e 33       	jn	$-418    	;abs 0x90e
     ab2:	7e 6d       	addc.b	@r13+,	r14	
     ab4:	73 70       	.word	0x7073;	????	Illegal as 2-op instr
     ab6:	67 63       	addc.b	#2,	r7	;r3 As==10
     ab8:	63 2d       	jc	$+712    	;abs 0xd80
     aba:	32 30       	jn	$+102    	;abs 0xb20
     abc:	31 32       	jn	$-924    	;abs 0x720
     abe:	30 34       	jge	$+98     	;abs 0xb20
     ac0:	30 36       	jge	$-926    	;abs 0x722
     ac2:	2f 2e       	jc	$-928    	;abs 0x722
     ac4:	2f 67       	addc	@r7,	r15	
     ac6:	63 63       	.word	0x6363;	????	Illegal as 2-op instr
     ac8:	2d 34       	jge	$+92     	;abs 0xb24
     aca:	2e 36       	jge	$-930    	;abs 0x728
     acc:	2e 33       	jn	$-418    	;abs 0x92a
     ace:	2f 6c       	addc	@r12,	r15	
     ad0:	69 62       	addc.b	#4,	r9	;r2 As==10
     ad2:	67 63       	addc.b	#2,	r7	;r3 As==10
     ad4:	63 2f       	jc	$-312    	;abs 0x99c
     ad6:	2e 2e       	jc	$-930    	;abs 0x734
     ad8:	2f 67       	addc	@r7,	r15	
     ada:	63 63       	.word	0x6363;	????	Illegal as 2-op instr
     adc:	2f 63       	addc	#2,	r15	;r3 As==10
     ade:	6f 6e       	addc.b	@r14,	r15	
     ae0:	66 69       	addc.b	@r9,	r6	
     ae2:	67 2f       	jc	$-304    	;abs 0x9b2
     ae4:	6d 73       	subc.b	#2,	r13	;r3 As==10
     ae6:	70 34       	jge	$+226    	;abs 0xbc8
     ae8:	33 30       	jn	$+104    	;abs 0xb50
     aea:	2f 6c       	addc	@r12,	r15	
     aec:	69 62       	addc.b	#4,	r9	;r2 As==10
     aee:	67 63       	addc.b	#2,	r7	;r3 As==10
     af0:	63 2e       	jc	$-824    	;abs 0x7b8
     af2:	53 00       	.word	0x0053;	????	
     af4:	2f 62       	addc	#4,	r15	;r2 As==10
     af6:	75 69       	addc.b	@r9+,	r5	
     af8:	6c 64       	addc.b	@r4,	r12	
     afa:	2f 67       	addc	@r7,	r15	
     afc:	63 63       	.word	0x6363;	????	Illegal as 2-op instr
     afe:	2d 6d       	addc	@r13,	r13	
     b00:	73 70       	.word	0x7073;	????	Illegal as 2-op instr
     b02:	34 33       	jn	$-406    	;abs 0x96c
     b04:	30 2d       	jc	$+610    	;abs 0xd66
     b06:	52 32       	jn	$-858    	;abs 0x7ac
     b08:	61 38       	jl	$+196    	;abs 0xbcc
     b0a:	4e 33       	jn	$-354    	;abs 0x9a8
     b0c:	2f 67       	addc	@r7,	r15	
     b0e:	63 63       	.word	0x6363;	????	Illegal as 2-op instr
     b10:	2d 6d       	addc	@r13,	r13	
     b12:	73 70       	.word	0x7073;	????	Illegal as 2-op instr
     b14:	34 33       	jn	$-406    	;abs 0x97e
     b16:	30 2d       	jc	$+610    	;abs 0xd78
     b18:	34 2e       	jc	$-918    	;abs 0x782
     b1a:	36 2e       	jc	$-914    	;abs 0x788
     b1c:	33 7e       	.word	0x7e33;	????	Illegal as 2-op instr
     b1e:	6d 73       	subc.b	#2,	r13	;r3 As==10
     b20:	70 67       	addc.b	@r7+,	r0	
     b22:	63 63       	.word	0x6363;	????	Illegal as 2-op instr
     b24:	2d 32       	jn	$-932    	;abs 0x780
     b26:	30 31       	jn	$+610    	;abs 0xd88
     b28:	32 30       	jn	$+102    	;abs 0xb8e
     b2a:	34 30       	jn	$+106    	;abs 0xb94
     b2c:	36 2f       	jc	$-402    	;abs 0x99a
     b2e:	62 75       	subc.b	@r5,	r2	
     b30:	69 6c       	addc.b	@r12,	r9	
     b32:	64 2d       	jc	$+714    	;abs 0xdfc
     b34:	72 65       	addc.b	@r5+,	r2	
     b36:	73 75       	.word	0x7573;	????	Illegal as 2-op instr
     b38:	6c 74       	subc.b	@r4,	r12	
     b3a:	2f 6d       	addc	@r13,	r15	
     b3c:	73 70       	.word	0x7073;	????	Illegal as 2-op instr
     b3e:	34 33       	jn	$-406    	;abs 0x9a8
     b40:	30 2f       	jc	$-414    	;abs 0x9a2
     b42:	6c 69       	addc.b	@r9,	r12	
     b44:	62 67       	addc.b	@r7,	r2	
     b46:	63 63       	.word	0x6363;	????	Illegal as 2-op instr
     b48:	00 47       	br	r7		
     b4a:	4e 55       	add.b	r5,	r14	
     b4c:	20 41       	br	@r1		
     b4e:	53 20       	jnz	$+168    	;abs 0xbf6
     b50:	32 2e       	jc	$-922    	;abs 0x7b6
     b52:	32 31       	jn	$+614    	;abs 0xdb8
     b54:	2e 31       	jn	$+606    	;abs 0xdb2
     b56:	00 01       	.word	0x0100;	????	
     b58:	80 ca 00 00 	bic	r10,	0(r0)	;PC rel. 0x0b5a
     b5c:	00 02       	.word	0x0200;	????	
     b5e:	00 0c       	.word	0x0c00;	????	
     b60:	04 00       	.word	0x0004;	????	
     b62:	00 02       	.word	0x0200;	????	
     b64:	01 cc       	bic	r12,	r1	
     b66:	05 00       	.word	0x0005;	????	
     b68:	00 00       	.word	0x0000;	????	
     b6a:	c0 0c       	.word	0x0cc0;	????	
     b6c:	c0 2f       	jc	$-126    	;abs 0xaee
     b6e:	62 75       	subc.b	@r5,	r2	
     b70:	69 6c       	addc.b	@r12,	r9	
     b72:	64 2f       	jc	$-310    	;abs 0xa3c
     b74:	67 63       	addc.b	#2,	r7	;r3 As==10
     b76:	63 2d       	jc	$+712    	;abs 0xe3e
     b78:	6d 73       	subc.b	#2,	r13	;r3 As==10
     b7a:	70 34       	jge	$+226    	;abs 0xc5c
     b7c:	33 30       	jn	$+104    	;abs 0xbe4
     b7e:	2d 52       	add	#4,	r13	;r2 As==10
     b80:	32 61       	addc	@r1+,	r2	
     b82:	38 4e       	mov	@r14+,	r8	
     b84:	33 2f       	jc	$-408    	;abs 0x9ec
     b86:	67 63       	addc.b	#2,	r7	;r3 As==10
     b88:	63 2d       	jc	$+712    	;abs 0xe50
     b8a:	6d 73       	subc.b	#2,	r13	;r3 As==10
     b8c:	70 34       	jge	$+226    	;abs 0xc6e
     b8e:	33 30       	jn	$+104    	;abs 0xbf6
     b90:	2d 34       	jge	$+92     	;abs 0xbec
     b92:	2e 36       	jge	$-930    	;abs 0x7f0
     b94:	2e 33       	jn	$-418    	;abs 0x9f2
     b96:	7e 6d       	addc.b	@r13+,	r14	
     b98:	73 70       	.word	0x7073;	????	Illegal as 2-op instr
     b9a:	67 63       	addc.b	#2,	r7	;r3 As==10
     b9c:	63 2d       	jc	$+712    	;abs 0xe64
     b9e:	32 30       	jn	$+102    	;abs 0xc04
     ba0:	31 32       	jn	$-924    	;abs 0x804
     ba2:	30 34       	jge	$+98     	;abs 0xc04
     ba4:	30 36       	jge	$-926    	;abs 0x806
     ba6:	2f 2e       	jc	$-928    	;abs 0x806
     ba8:	2f 67       	addc	@r7,	r15	
     baa:	63 63       	.word	0x6363;	????	Illegal as 2-op instr
     bac:	2d 34       	jge	$+92     	;abs 0xc08
     bae:	2e 36       	jge	$-930    	;abs 0x80c
     bb0:	2e 33       	jn	$-418    	;abs 0xa0e
     bb2:	2f 67       	addc	@r7,	r15	
     bb4:	63 63       	.word	0x6363;	????	Illegal as 2-op instr
     bb6:	2f 63       	addc	#2,	r15	;r3 As==10
     bb8:	6f 6e       	addc.b	@r14,	r15	
     bba:	66 69       	addc.b	@r9,	r6	
     bbc:	67 2f       	jc	$-304    	;abs 0xa8c
     bbe:	6d 73       	subc.b	#2,	r13	;r3 As==10
     bc0:	70 34       	jge	$+226    	;abs 0xca2
     bc2:	33 30       	jn	$+104    	;abs 0xc2a
     bc4:	2f 63       	addc	#2,	r15	;r3 As==10
     bc6:	72 74       	subc.b	@r4+,	r2	
     bc8:	30 2e       	jc	$-926    	;abs 0x82a
     bca:	53 00       	.word	0x0053;	????	
     bcc:	2f 62       	addc	#4,	r15	;r2 As==10
     bce:	75 69       	addc.b	@r9+,	r5	
     bd0:	6c 64       	addc.b	@r4,	r12	
     bd2:	2f 67       	addc	@r7,	r15	
     bd4:	63 63       	.word	0x6363;	????	Illegal as 2-op instr
     bd6:	2d 6d       	addc	@r13,	r13	
     bd8:	73 70       	.word	0x7073;	????	Illegal as 2-op instr
     bda:	34 33       	jn	$-406    	;abs 0xa44
     bdc:	30 2d       	jc	$+610    	;abs 0xe3e
     bde:	52 32       	jn	$-858    	;abs 0x884
     be0:	61 38       	jl	$+196    	;abs 0xca4
     be2:	4e 33       	jn	$-354    	;abs 0xa80
     be4:	2f 67       	addc	@r7,	r15	
     be6:	63 63       	.word	0x6363;	????	Illegal as 2-op instr
     be8:	2d 6d       	addc	@r13,	r13	
     bea:	73 70       	.word	0x7073;	????	Illegal as 2-op instr
     bec:	34 33       	jn	$-406    	;abs 0xa56
     bee:	30 2d       	jc	$+610    	;abs 0xe50
     bf0:	34 2e       	jc	$-918    	;abs 0x85a
     bf2:	36 2e       	jc	$-914    	;abs 0x860
     bf4:	33 7e       	.word	0x7e33;	????	Illegal as 2-op instr
     bf6:	6d 73       	subc.b	#2,	r13	;r3 As==10
     bf8:	70 67       	addc.b	@r7+,	r0	
     bfa:	63 63       	.word	0x6363;	????	Illegal as 2-op instr
     bfc:	2d 32       	jn	$-932    	;abs 0x858
     bfe:	30 31       	jn	$+610    	;abs 0xe60
     c00:	32 30       	jn	$+102    	;abs 0xc66
     c02:	34 30       	jn	$+106    	;abs 0xc6c
     c04:	36 2f       	jc	$-402    	;abs 0xa72
     c06:	62 75       	subc.b	@r5,	r2	
     c08:	69 6c       	addc.b	@r12,	r9	
     c0a:	64 2d       	jc	$+714    	;abs 0xed4
     c0c:	72 65       	addc.b	@r5+,	r2	
     c0e:	73 75       	.word	0x7573;	????	Illegal as 2-op instr
     c10:	6c 74       	subc.b	@r4,	r12	
     c12:	2f 67       	addc	@r7,	r15	
     c14:	63 63       	.word	0x6363;	????	Illegal as 2-op instr
     c16:	00 47       	br	r7		
     c18:	4e 55       	add.b	r5,	r14	
     c1a:	20 41       	br	@r1		
     c1c:	53 20       	jnz	$+168    	;abs 0xcc4
     c1e:	32 2e       	jc	$-922    	;abs 0x884
     c20:	32 31       	jn	$+614    	;abs 0xe86
     c22:	2e 31       	jn	$+606    	;abs 0xe80
     c24:	00 01       	.word	0x0100;	????	
     c26:	80 ca 00 00 	bic	r10,	0(r0)	;PC rel. 0x0c28
     c2a:	00 02       	.word	0x0200;	????	
     c2c:	00 20       	jnz	$+2      	;abs 0xc2e
     c2e:	04 00       	.word	0x0004;	????	
     c30:	00 02       	.word	0x0200;	????	
     c32:	01 5b       	add	r11,	r1	
     c34:	06 00       	.word	0x0006;	????	
     c36:	00 0c       	.word	0x0c00;	????	
     c38:	c0 10       	.word	0x10c0;	????	
     c3a:	c0 2f       	jc	$-126    	;abs 0xbbc
     c3c:	62 75       	subc.b	@r5,	r2	
     c3e:	69 6c       	addc.b	@r12,	r9	
     c40:	64 2f       	jc	$-310    	;abs 0xb0a
     c42:	67 63       	addc.b	#2,	r7	;r3 As==10
     c44:	63 2d       	jc	$+712    	;abs 0xf0c
     c46:	6d 73       	subc.b	#2,	r13	;r3 As==10
     c48:	70 34       	jge	$+226    	;abs 0xd2a
     c4a:	33 30       	jn	$+104    	;abs 0xcb2
     c4c:	2d 52       	add	#4,	r13	;r2 As==10
     c4e:	32 61       	addc	@r1+,	r2	
     c50:	38 4e       	mov	@r14+,	r8	
     c52:	33 2f       	jc	$-408    	;abs 0xaba
     c54:	67 63       	addc.b	#2,	r7	;r3 As==10
     c56:	63 2d       	jc	$+712    	;abs 0xf1e
     c58:	6d 73       	subc.b	#2,	r13	;r3 As==10
     c5a:	70 34       	jge	$+226    	;abs 0xd3c
     c5c:	33 30       	jn	$+104    	;abs 0xcc4
     c5e:	2d 34       	jge	$+92     	;abs 0xcba
     c60:	2e 36       	jge	$-930    	;abs 0x8be
     c62:	2e 33       	jn	$-418    	;abs 0xac0
     c64:	7e 6d       	addc.b	@r13+,	r14	
     c66:	73 70       	.word	0x7073;	????	Illegal as 2-op instr
     c68:	67 63       	addc.b	#2,	r7	;r3 As==10
     c6a:	63 2d       	jc	$+712    	;abs 0xf32
     c6c:	32 30       	jn	$+102    	;abs 0xcd2
     c6e:	31 32       	jn	$-924    	;abs 0x8d2
     c70:	30 34       	jge	$+98     	;abs 0xcd2
     c72:	30 36       	jge	$-926    	;abs 0x8d4
     c74:	2f 2e       	jc	$-928    	;abs 0x8d4
     c76:	2f 67       	addc	@r7,	r15	
     c78:	63 63       	.word	0x6363;	????	Illegal as 2-op instr
     c7a:	2d 34       	jge	$+92     	;abs 0xcd6
     c7c:	2e 36       	jge	$-930    	;abs 0x8da
     c7e:	2e 33       	jn	$-418    	;abs 0xadc
     c80:	2f 67       	addc	@r7,	r15	
     c82:	63 63       	.word	0x6363;	????	Illegal as 2-op instr
     c84:	2f 63       	addc	#2,	r15	;r3 As==10
     c86:	6f 6e       	addc.b	@r14,	r15	
     c88:	66 69       	addc.b	@r9,	r6	
     c8a:	67 2f       	jc	$-304    	;abs 0xb5a
     c8c:	6d 73       	subc.b	#2,	r13	;r3 As==10
     c8e:	70 34       	jge	$+226    	;abs 0xd70
     c90:	33 30       	jn	$+104    	;abs 0xcf8
     c92:	2f 63       	addc	#2,	r15	;r3 As==10
     c94:	72 74       	subc.b	@r4+,	r2	
     c96:	30 2e       	jc	$-926    	;abs 0x8f8
     c98:	53 00       	.word	0x0053;	????	
     c9a:	2f 62       	addc	#4,	r15	;r2 As==10
     c9c:	75 69       	addc.b	@r9+,	r5	
     c9e:	6c 64       	addc.b	@r4,	r12	
     ca0:	2f 67       	addc	@r7,	r15	
     ca2:	63 63       	.word	0x6363;	????	Illegal as 2-op instr
     ca4:	2d 6d       	addc	@r13,	r13	
     ca6:	73 70       	.word	0x7073;	????	Illegal as 2-op instr
     ca8:	34 33       	jn	$-406    	;abs 0xb12
     caa:	30 2d       	jc	$+610    	;abs 0xf0c
     cac:	52 32       	jn	$-858    	;abs 0x952
     cae:	61 38       	jl	$+196    	;abs 0xd72
     cb0:	4e 33       	jn	$-354    	;abs 0xb4e
     cb2:	2f 67       	addc	@r7,	r15	
     cb4:	63 63       	.word	0x6363;	????	Illegal as 2-op instr
     cb6:	2d 6d       	addc	@r13,	r13	
     cb8:	73 70       	.word	0x7073;	????	Illegal as 2-op instr
     cba:	34 33       	jn	$-406    	;abs 0xb24
     cbc:	30 2d       	jc	$+610    	;abs 0xf1e
     cbe:	34 2e       	jc	$-918    	;abs 0x928
     cc0:	36 2e       	jc	$-914    	;abs 0x92e
     cc2:	33 7e       	.word	0x7e33;	????	Illegal as 2-op instr
     cc4:	6d 73       	subc.b	#2,	r13	;r3 As==10
     cc6:	70 67       	addc.b	@r7+,	r0	
     cc8:	63 63       	.word	0x6363;	????	Illegal as 2-op instr
     cca:	2d 32       	jn	$-932    	;abs 0x926
     ccc:	30 31       	jn	$+610    	;abs 0xf2e
     cce:	32 30       	jn	$+102    	;abs 0xd34
     cd0:	34 30       	jn	$+106    	;abs 0xd3a
     cd2:	36 2f       	jc	$-402    	;abs 0xb40
     cd4:	62 75       	subc.b	@r5,	r2	
     cd6:	69 6c       	addc.b	@r12,	r9	
     cd8:	64 2d       	jc	$+714    	;abs 0xfa2
     cda:	72 65       	addc.b	@r5+,	r2	
     cdc:	73 75       	.word	0x7573;	????	Illegal as 2-op instr
     cde:	6c 74       	subc.b	@r4,	r12	
     ce0:	2f 67       	addc	@r7,	r15	
     ce2:	63 63       	.word	0x6363;	????	Illegal as 2-op instr
     ce4:	00 47       	br	r7		
     ce6:	4e 55       	add.b	r5,	r14	
     ce8:	20 41       	br	@r1		
     cea:	53 20       	jnz	$+168    	;abs 0xd92
     cec:	32 2e       	jc	$-922    	;abs 0x952
     cee:	32 31       	jn	$+614    	;abs 0xf54
     cf0:	2e 31       	jn	$+606    	;abs 0xf4e
     cf2:	00 01       	.word	0x0100;	????	
     cf4:	80 ca 00 00 	bic	r10,	0(r0)	;PC rel. 0x0cf6
     cf8:	00 02       	.word	0x0200;	????	
     cfa:	00 34       	jge	$+2      	;abs 0xcfc
     cfc:	04 00       	.word	0x0004;	????	
     cfe:	00 02       	.word	0x0200;	????	
     d00:	01 e8       	xor	r8,	r1	
     d02:	06 00       	.word	0x0006;	????	
     d04:	00 10       	rrc	r0		
     d06:	c0 28       	jnc	$+386    	;abs 0xe88
     d08:	c0 2f       	jc	$-126    	;abs 0xc8a
     d0a:	62 75       	subc.b	@r5,	r2	
     d0c:	69 6c       	addc.b	@r12,	r9	
     d0e:	64 2f       	jc	$-310    	;abs 0xbd8
     d10:	67 63       	addc.b	#2,	r7	;r3 As==10
     d12:	63 2d       	jc	$+712    	;abs 0xfda
     d14:	6d 73       	subc.b	#2,	r13	;r3 As==10
     d16:	70 34       	jge	$+226    	;abs 0xdf8
     d18:	33 30       	jn	$+104    	;abs 0xd80
     d1a:	2d 52       	add	#4,	r13	;r2 As==10
     d1c:	32 61       	addc	@r1+,	r2	
     d1e:	38 4e       	mov	@r14+,	r8	
     d20:	33 2f       	jc	$-408    	;abs 0xb88
     d22:	67 63       	addc.b	#2,	r7	;r3 As==10
     d24:	63 2d       	jc	$+712    	;abs 0xfec
     d26:	6d 73       	subc.b	#2,	r13	;r3 As==10
     d28:	70 34       	jge	$+226    	;abs 0xe0a
     d2a:	33 30       	jn	$+104    	;abs 0xd92
     d2c:	2d 34       	jge	$+92     	;abs 0xd88
     d2e:	2e 36       	jge	$-930    	;abs 0x98c
     d30:	2e 33       	jn	$-418    	;abs 0xb8e
     d32:	7e 6d       	addc.b	@r13+,	r14	
     d34:	73 70       	.word	0x7073;	????	Illegal as 2-op instr
     d36:	67 63       	addc.b	#2,	r7	;r3 As==10
     d38:	63 2d       	jc	$+712    	;abs 0x1000
     d3a:	32 30       	jn	$+102    	;abs 0xda0
     d3c:	31 32       	jn	$-924    	;abs 0x9a0
     d3e:	30 34       	jge	$+98     	;abs 0xda0
     d40:	30 36       	jge	$-926    	;abs 0x9a2
     d42:	2f 2e       	jc	$-928    	;abs 0x9a2
     d44:	2f 67       	addc	@r7,	r15	
     d46:	63 63       	.word	0x6363;	????	Illegal as 2-op instr
     d48:	2d 34       	jge	$+92     	;abs 0xda4
     d4a:	2e 36       	jge	$-930    	;abs 0x9a8
     d4c:	2e 33       	jn	$-418    	;abs 0xbaa
     d4e:	2f 67       	addc	@r7,	r15	
     d50:	63 63       	.word	0x6363;	????	Illegal as 2-op instr
     d52:	2f 63       	addc	#2,	r15	;r3 As==10
     d54:	6f 6e       	addc.b	@r14,	r15	
     d56:	66 69       	addc.b	@r9,	r6	
     d58:	67 2f       	jc	$-304    	;abs 0xc28
     d5a:	6d 73       	subc.b	#2,	r13	;r3 As==10
     d5c:	70 34       	jge	$+226    	;abs 0xe3e
     d5e:	33 30       	jn	$+104    	;abs 0xdc6
     d60:	2f 63       	addc	#2,	r15	;r3 As==10
     d62:	72 74       	subc.b	@r4+,	r2	
     d64:	30 2e       	jc	$-926    	;abs 0x9c6
     d66:	53 00       	.word	0x0053;	????	
     d68:	2f 62       	addc	#4,	r15	;r2 As==10
     d6a:	75 69       	addc.b	@r9+,	r5	
     d6c:	6c 64       	addc.b	@r4,	r12	
     d6e:	2f 67       	addc	@r7,	r15	
     d70:	63 63       	.word	0x6363;	????	Illegal as 2-op instr
     d72:	2d 6d       	addc	@r13,	r13	
     d74:	73 70       	.word	0x7073;	????	Illegal as 2-op instr
     d76:	34 33       	jn	$-406    	;abs 0xbe0
     d78:	30 2d       	jc	$+610    	;abs 0xfda
     d7a:	52 32       	jn	$-858    	;abs 0xa20
     d7c:	61 38       	jl	$+196    	;abs 0xe40
     d7e:	4e 33       	jn	$-354    	;abs 0xc1c
     d80:	2f 67       	addc	@r7,	r15	
     d82:	63 63       	.word	0x6363;	????	Illegal as 2-op instr
     d84:	2d 6d       	addc	@r13,	r13	
     d86:	73 70       	.word	0x7073;	????	Illegal as 2-op instr
     d88:	34 33       	jn	$-406    	;abs 0xbf2
     d8a:	30 2d       	jc	$+610    	;abs 0xfec
     d8c:	34 2e       	jc	$-918    	;abs 0x9f6
     d8e:	36 2e       	jc	$-914    	;abs 0x9fc
     d90:	33 7e       	.word	0x7e33;	????	Illegal as 2-op instr
     d92:	6d 73       	subc.b	#2,	r13	;r3 As==10
     d94:	70 67       	addc.b	@r7+,	r0	
     d96:	63 63       	.word	0x6363;	????	Illegal as 2-op instr
     d98:	2d 32       	jn	$-932    	;abs 0x9f4
     d9a:	30 31       	jn	$+610    	;abs 0xffc
     d9c:	32 30       	jn	$+102    	;abs 0xe02
     d9e:	34 30       	jn	$+106    	;abs 0xe08
     da0:	36 2f       	jc	$-402    	;abs 0xc0e
     da2:	62 75       	subc.b	@r5,	r2	
     da4:	69 6c       	addc.b	@r12,	r9	
     da6:	64 2d       	jc	$+714    	;abs 0x1070
     da8:	72 65       	addc.b	@r5+,	r2	
     daa:	73 75       	.word	0x7573;	????	Illegal as 2-op instr
     dac:	6c 74       	subc.b	@r4,	r12	
     dae:	2f 67       	addc	@r7,	r15	
     db0:	63 63       	.word	0x6363;	????	Illegal as 2-op instr
     db2:	00 47       	br	r7		
     db4:	4e 55       	add.b	r5,	r14	
     db6:	20 41       	br	@r1		
     db8:	53 20       	jnz	$+168    	;abs 0xe60
     dba:	32 2e       	jc	$-922    	;abs 0xa20
     dbc:	32 31       	jn	$+614    	;abs 0x1022
     dbe:	2e 31       	jn	$+606    	;abs 0x101c
     dc0:	00 01       	.word	0x0100;	????	
     dc2:	80 ca 00 00 	bic	r10,	0(r0)	;PC rel. 0x0dc4
     dc6:	00 02       	.word	0x0200;	????	
     dc8:	00 48       	br	r8		
     dca:	04 00       	.word	0x0004;	????	
     dcc:	00 02       	.word	0x0200;	????	
     dce:	01 7b       	subc	r11,	r1	
     dd0:	07 00       	.word	0x0007;	????	
     dd2:	00 28       	jnc	$+2      	;abs 0xdd4
     dd4:	c0 3e       	jmp	$-638    	;abs 0xb56
     dd6:	c0 2f       	jc	$-126    	;abs 0xd58
     dd8:	62 75       	subc.b	@r5,	r2	
     dda:	69 6c       	addc.b	@r12,	r9	
     ddc:	64 2f       	jc	$-310    	;abs 0xca6
     dde:	67 63       	addc.b	#2,	r7	;r3 As==10
     de0:	63 2d       	jc	$+712    	;abs 0x10a8
     de2:	6d 73       	subc.b	#2,	r13	;r3 As==10
     de4:	70 34       	jge	$+226    	;abs 0xec6
     de6:	33 30       	jn	$+104    	;abs 0xe4e
     de8:	2d 52       	add	#4,	r13	;r2 As==10
     dea:	32 61       	addc	@r1+,	r2	
     dec:	38 4e       	mov	@r14+,	r8	
     dee:	33 2f       	jc	$-408    	;abs 0xc56
     df0:	67 63       	addc.b	#2,	r7	;r3 As==10
     df2:	63 2d       	jc	$+712    	;abs 0x10ba
     df4:	6d 73       	subc.b	#2,	r13	;r3 As==10
     df6:	70 34       	jge	$+226    	;abs 0xed8
     df8:	33 30       	jn	$+104    	;abs 0xe60
     dfa:	2d 34       	jge	$+92     	;abs 0xe56
     dfc:	2e 36       	jge	$-930    	;abs 0xa5a
     dfe:	2e 33       	jn	$-418    	;abs 0xc5c
     e00:	7e 6d       	addc.b	@r13+,	r14	
     e02:	73 70       	.word	0x7073;	????	Illegal as 2-op instr
     e04:	67 63       	addc.b	#2,	r7	;r3 As==10
     e06:	63 2d       	jc	$+712    	;abs 0x10ce
     e08:	32 30       	jn	$+102    	;abs 0xe6e
     e0a:	31 32       	jn	$-924    	;abs 0xa6e
     e0c:	30 34       	jge	$+98     	;abs 0xe6e
     e0e:	30 36       	jge	$-926    	;abs 0xa70
     e10:	2f 2e       	jc	$-928    	;abs 0xa70
     e12:	2f 67       	addc	@r7,	r15	
     e14:	63 63       	.word	0x6363;	????	Illegal as 2-op instr
     e16:	2d 34       	jge	$+92     	;abs 0xe72
     e18:	2e 36       	jge	$-930    	;abs 0xa76
     e1a:	2e 33       	jn	$-418    	;abs 0xc78
     e1c:	2f 67       	addc	@r7,	r15	
     e1e:	63 63       	.word	0x6363;	????	Illegal as 2-op instr
     e20:	2f 63       	addc	#2,	r15	;r3 As==10
     e22:	6f 6e       	addc.b	@r14,	r15	
     e24:	66 69       	addc.b	@r9,	r6	
     e26:	67 2f       	jc	$-304    	;abs 0xcf6
     e28:	6d 73       	subc.b	#2,	r13	;r3 As==10
     e2a:	70 34       	jge	$+226    	;abs 0xf0c
     e2c:	33 30       	jn	$+104    	;abs 0xe94
     e2e:	2f 63       	addc	#2,	r15	;r3 As==10
     e30:	72 74       	subc.b	@r4+,	r2	
     e32:	30 2e       	jc	$-926    	;abs 0xa94
     e34:	53 00       	.word	0x0053;	????	
     e36:	2f 62       	addc	#4,	r15	;r2 As==10
     e38:	75 69       	addc.b	@r9+,	r5	
     e3a:	6c 64       	addc.b	@r4,	r12	
     e3c:	2f 67       	addc	@r7,	r15	
     e3e:	63 63       	.word	0x6363;	????	Illegal as 2-op instr
     e40:	2d 6d       	addc	@r13,	r13	
     e42:	73 70       	.word	0x7073;	????	Illegal as 2-op instr
     e44:	34 33       	jn	$-406    	;abs 0xcae
     e46:	30 2d       	jc	$+610    	;abs 0x10a8
     e48:	52 32       	jn	$-858    	;abs 0xaee
     e4a:	61 38       	jl	$+196    	;abs 0xf0e
     e4c:	4e 33       	jn	$-354    	;abs 0xcea
     e4e:	2f 67       	addc	@r7,	r15	
     e50:	63 63       	.word	0x6363;	????	Illegal as 2-op instr
     e52:	2d 6d       	addc	@r13,	r13	
     e54:	73 70       	.word	0x7073;	????	Illegal as 2-op instr
     e56:	34 33       	jn	$-406    	;abs 0xcc0
     e58:	30 2d       	jc	$+610    	;abs 0x10ba
     e5a:	34 2e       	jc	$-918    	;abs 0xac4
     e5c:	36 2e       	jc	$-914    	;abs 0xaca
     e5e:	33 7e       	.word	0x7e33;	????	Illegal as 2-op instr
     e60:	6d 73       	subc.b	#2,	r13	;r3 As==10
     e62:	70 67       	addc.b	@r7+,	r0	
     e64:	63 63       	.word	0x6363;	????	Illegal as 2-op instr
     e66:	2d 32       	jn	$-932    	;abs 0xac2
     e68:	30 31       	jn	$+610    	;abs 0x10ca
     e6a:	32 30       	jn	$+102    	;abs 0xed0
     e6c:	34 30       	jn	$+106    	;abs 0xed6
     e6e:	36 2f       	jc	$-402    	;abs 0xcdc
     e70:	62 75       	subc.b	@r5,	r2	
     e72:	69 6c       	addc.b	@r12,	r9	
     e74:	64 2d       	jc	$+714    	;abs 0x113e
     e76:	72 65       	addc.b	@r5+,	r2	
     e78:	73 75       	.word	0x7573;	????	Illegal as 2-op instr
     e7a:	6c 74       	subc.b	@r4,	r12	
     e7c:	2f 67       	addc	@r7,	r15	
     e7e:	63 63       	.word	0x6363;	????	Illegal as 2-op instr
     e80:	00 47       	br	r7		
     e82:	4e 55       	add.b	r5,	r14	
     e84:	20 41       	br	@r1		
     e86:	53 20       	jnz	$+168    	;abs 0xf2e
     e88:	32 2e       	jc	$-922    	;abs 0xaee
     e8a:	32 31       	jn	$+614    	;abs 0x10f0
     e8c:	2e 31       	jn	$+606    	;abs 0x10ea
     e8e:	00 01       	.word	0x0100;	????	
     e90:	80 ca 00 00 	bic	r10,	0(r0)	;PC rel. 0x0e92
     e94:	00 02       	.word	0x0200;	????	
     e96:	00 5c       	add	r12,	r0	
     e98:	04 00       	.word	0x0004;	????	
     e9a:	00 02       	.word	0x0200;	????	
     e9c:	01 0e       	.word	0x0e01;	????	
     e9e:	08 00       	.word	0x0008;	????	
     ea0:	00 e8       	xor	r8,	r0	
     ea2:	c0 ee c0 2f 	xor.b	r14,	12224(r0);PC rel. 0x3e64
     ea6:	62 75       	subc.b	@r5,	r2	
     ea8:	69 6c       	addc.b	@r12,	r9	
     eaa:	64 2f       	jc	$-310    	;abs 0xd74
     eac:	67 63       	addc.b	#2,	r7	;r3 As==10
     eae:	63 2d       	jc	$+712    	;abs 0x1176
     eb0:	6d 73       	subc.b	#2,	r13	;r3 As==10
     eb2:	70 34       	jge	$+226    	;abs 0xf94
     eb4:	33 30       	jn	$+104    	;abs 0xf1c
     eb6:	2d 52       	add	#4,	r13	;r2 As==10
     eb8:	32 61       	addc	@r1+,	r2	
     eba:	38 4e       	mov	@r14+,	r8	
     ebc:	33 2f       	jc	$-408    	;abs 0xd24
     ebe:	67 63       	addc.b	#2,	r7	;r3 As==10
     ec0:	63 2d       	jc	$+712    	;abs 0x1188
     ec2:	6d 73       	subc.b	#2,	r13	;r3 As==10
     ec4:	70 34       	jge	$+226    	;abs 0xfa6
     ec6:	33 30       	jn	$+104    	;abs 0xf2e
     ec8:	2d 34       	jge	$+92     	;abs 0xf24
     eca:	2e 36       	jge	$-930    	;abs 0xb28
     ecc:	2e 33       	jn	$-418    	;abs 0xd2a
     ece:	7e 6d       	addc.b	@r13+,	r14	
     ed0:	73 70       	.word	0x7073;	????	Illegal as 2-op instr
     ed2:	67 63       	addc.b	#2,	r7	;r3 As==10
     ed4:	63 2d       	jc	$+712    	;abs 0x119c
     ed6:	32 30       	jn	$+102    	;abs 0xf3c
     ed8:	31 32       	jn	$-924    	;abs 0xb3c
     eda:	30 34       	jge	$+98     	;abs 0xf3c
     edc:	30 36       	jge	$-926    	;abs 0xb3e
     ede:	2f 2e       	jc	$-928    	;abs 0xb3e
     ee0:	2f 67       	addc	@r7,	r15	
     ee2:	63 63       	.word	0x6363;	????	Illegal as 2-op instr
     ee4:	2d 34       	jge	$+92     	;abs 0xf40
     ee6:	2e 36       	jge	$-930    	;abs 0xb44
     ee8:	2e 33       	jn	$-418    	;abs 0xd46
     eea:	2f 67       	addc	@r7,	r15	
     eec:	63 63       	.word	0x6363;	????	Illegal as 2-op instr
     eee:	2f 63       	addc	#2,	r15	;r3 As==10
     ef0:	6f 6e       	addc.b	@r14,	r15	
     ef2:	66 69       	addc.b	@r9,	r6	
     ef4:	67 2f       	jc	$-304    	;abs 0xdc4
     ef6:	6d 73       	subc.b	#2,	r13	;r3 As==10
     ef8:	70 34       	jge	$+226    	;abs 0xfda
     efa:	33 30       	jn	$+104    	;abs 0xf62
     efc:	2f 63       	addc	#2,	r15	;r3 As==10
     efe:	72 74       	subc.b	@r4+,	r2	
     f00:	30 2e       	jc	$-926    	;abs 0xb62
     f02:	53 00       	.word	0x0053;	????	
     f04:	2f 62       	addc	#4,	r15	;r2 As==10
     f06:	75 69       	addc.b	@r9+,	r5	
     f08:	6c 64       	addc.b	@r4,	r12	
     f0a:	2f 67       	addc	@r7,	r15	
     f0c:	63 63       	.word	0x6363;	????	Illegal as 2-op instr
     f0e:	2d 6d       	addc	@r13,	r13	
     f10:	73 70       	.word	0x7073;	????	Illegal as 2-op instr
     f12:	34 33       	jn	$-406    	;abs 0xd7c
     f14:	30 2d       	jc	$+610    	;abs 0x1176
     f16:	52 32       	jn	$-858    	;abs 0xbbc
     f18:	61 38       	jl	$+196    	;abs 0xfdc
     f1a:	4e 33       	jn	$-354    	;abs 0xdb8
     f1c:	2f 67       	addc	@r7,	r15	
     f1e:	63 63       	.word	0x6363;	????	Illegal as 2-op instr
     f20:	2d 6d       	addc	@r13,	r13	
     f22:	73 70       	.word	0x7073;	????	Illegal as 2-op instr
     f24:	34 33       	jn	$-406    	;abs 0xd8e
     f26:	30 2d       	jc	$+610    	;abs 0x1188
     f28:	34 2e       	jc	$-918    	;abs 0xb92
     f2a:	36 2e       	jc	$-914    	;abs 0xb98
     f2c:	33 7e       	.word	0x7e33;	????	Illegal as 2-op instr
     f2e:	6d 73       	subc.b	#2,	r13	;r3 As==10
     f30:	70 67       	addc.b	@r7+,	r0	
     f32:	63 63       	.word	0x6363;	????	Illegal as 2-op instr
     f34:	2d 32       	jn	$-932    	;abs 0xb90
     f36:	30 31       	jn	$+610    	;abs 0x1198
     f38:	32 30       	jn	$+102    	;abs 0xf9e
     f3a:	34 30       	jn	$+106    	;abs 0xfa4
     f3c:	36 2f       	jc	$-402    	;abs 0xdaa
     f3e:	62 75       	subc.b	@r5,	r2	
     f40:	69 6c       	addc.b	@r12,	r9	
     f42:	64 2d       	jc	$+714    	;abs 0x120c
     f44:	72 65       	addc.b	@r5+,	r2	
     f46:	73 75       	.word	0x7573;	????	Illegal as 2-op instr
     f48:	6c 74       	subc.b	@r4,	r12	
     f4a:	2f 67       	addc	@r7,	r15	
     f4c:	63 63       	.word	0x6363;	????	Illegal as 2-op instr
     f4e:	00 47       	br	r7		
     f50:	4e 55       	add.b	r5,	r14	
     f52:	20 41       	br	@r1		
     f54:	53 20       	jnz	$+168    	;abs 0xffc
     f56:	32 2e       	jc	$-922    	;abs 0xbbc
     f58:	32 31       	jn	$+614    	;abs 0x11be
     f5a:	2e 31       	jn	$+606    	;abs 0x11b8
     f5c:	00 01       	.word	0x0100;	????	
     f5e:	80 ca 00 00 	bic	r10,	0(r0)	;PC rel. 0x0f60
     f62:	00 02       	.word	0x0200;	????	
     f64:	00 70       	subc	r0,	r0	
     f66:	04 00       	.word	0x0004;	????	
     f68:	00 02       	.word	0x0200;	????	
     f6a:	01 9c       	cmp	r12,	r1	
     f6c:	08 00       	.word	0x0008;	????	
     f6e:	00 30       	jn	$+2      	;abs 0xf70
     f70:	cb 32       	jn	$-616    	;abs 0xd08
     f72:	cb 2f       	jc	$-104    	;abs 0xf0a
     f74:	62 75       	subc.b	@r5,	r2	
     f76:	69 6c       	addc.b	@r12,	r9	
     f78:	64 2f       	jc	$-310    	;abs 0xe42
     f7a:	67 63       	addc.b	#2,	r7	;r3 As==10
     f7c:	63 2d       	jc	$+712    	;abs 0x1244
     f7e:	6d 73       	subc.b	#2,	r13	;r3 As==10
     f80:	70 34       	jge	$+226    	;abs 0x1062
     f82:	33 30       	jn	$+104    	;abs 0xfea
     f84:	2d 52       	add	#4,	r13	;r2 As==10
     f86:	32 61       	addc	@r1+,	r2	
     f88:	38 4e       	mov	@r14+,	r8	
     f8a:	33 2f       	jc	$-408    	;abs 0xdf2
     f8c:	67 63       	addc.b	#2,	r7	;r3 As==10
     f8e:	63 2d       	jc	$+712    	;abs 0x1256
     f90:	6d 73       	subc.b	#2,	r13	;r3 As==10
     f92:	70 34       	jge	$+226    	;abs 0x1074
     f94:	33 30       	jn	$+104    	;abs 0xffc
     f96:	2d 34       	jge	$+92     	;abs 0xff2
     f98:	2e 36       	jge	$-930    	;abs 0xbf6
     f9a:	2e 33       	jn	$-418    	;abs 0xdf8
     f9c:	7e 6d       	addc.b	@r13+,	r14	
     f9e:	73 70       	.word	0x7073;	????	Illegal as 2-op instr
     fa0:	67 63       	addc.b	#2,	r7	;r3 As==10
     fa2:	63 2d       	jc	$+712    	;abs 0x126a
     fa4:	32 30       	jn	$+102    	;abs 0x100a
     fa6:	31 32       	jn	$-924    	;abs 0xc0a
     fa8:	30 34       	jge	$+98     	;abs 0x100a
     faa:	30 36       	jge	$-926    	;abs 0xc0c
     fac:	2f 2e       	jc	$-928    	;abs 0xc0c
     fae:	2f 67       	addc	@r7,	r15	
     fb0:	63 63       	.word	0x6363;	????	Illegal as 2-op instr
     fb2:	2d 34       	jge	$+92     	;abs 0x100e
     fb4:	2e 36       	jge	$-930    	;abs 0xc12
     fb6:	2e 33       	jn	$-418    	;abs 0xe14
     fb8:	2f 67       	addc	@r7,	r15	
     fba:	63 63       	.word	0x6363;	????	Illegal as 2-op instr
     fbc:	2f 63       	addc	#2,	r15	;r3 As==10
     fbe:	6f 6e       	addc.b	@r14,	r15	
     fc0:	66 69       	addc.b	@r9,	r6	
     fc2:	67 2f       	jc	$-304    	;abs 0xe92
     fc4:	6d 73       	subc.b	#2,	r13	;r3 As==10
     fc6:	70 34       	jge	$+226    	;abs 0x10a8
     fc8:	33 30       	jn	$+104    	;abs 0x1030
     fca:	2f 63       	addc	#2,	r15	;r3 As==10
     fcc:	72 74       	subc.b	@r4+,	r2	
     fce:	30 2e       	jc	$-926    	;abs 0xc30
     fd0:	53 00       	.word	0x0053;	????	
     fd2:	2f 62       	addc	#4,	r15	;r2 As==10
     fd4:	75 69       	addc.b	@r9+,	r5	
     fd6:	6c 64       	addc.b	@r4,	r12	
     fd8:	2f 67       	addc	@r7,	r15	
     fda:	63 63       	.word	0x6363;	????	Illegal as 2-op instr
     fdc:	2d 6d       	addc	@r13,	r13	
     fde:	73 70       	.word	0x7073;	????	Illegal as 2-op instr
     fe0:	34 33       	jn	$-406    	;abs 0xe4a
     fe2:	30 2d       	jc	$+610    	;abs 0x1244
     fe4:	52 32       	jn	$-858    	;abs 0xc8a
     fe6:	61 38       	jl	$+196    	;abs 0x10aa
     fe8:	4e 33       	jn	$-354    	;abs 0xe86
     fea:	2f 67       	addc	@r7,	r15	
     fec:	63 63       	.word	0x6363;	????	Illegal as 2-op instr
     fee:	2d 6d       	addc	@r13,	r13	
     ff0:	73 70       	.word	0x7073;	????	Illegal as 2-op instr
     ff2:	34 33       	jn	$-406    	;abs 0xe5c
     ff4:	30 2d       	jc	$+610    	;abs 0x1256
     ff6:	34 2e       	jc	$-918    	;abs 0xc60
     ff8:	36 2e       	jc	$-914    	;abs 0xc66
     ffa:	33 7e       	.word	0x7e33;	????	Illegal as 2-op instr
     ffc:	6d 73       	subc.b	#2,	r13	;r3 As==10
     ffe:	70 67       	addc.b	@r7+,	r0	
    1000:	63 63       	.word	0x6363;	????	Illegal as 2-op instr
    1002:	2d 32       	jn	$-932    	;abs 0xc5e
    1004:	30 31       	jn	$+610    	;abs 0x1266
    1006:	32 30       	jn	$+102    	;abs 0x106c
    1008:	34 30       	jn	$+106    	;abs 0x1072
    100a:	36 2f       	jc	$-402    	;abs 0xe78
    100c:	62 75       	subc.b	@r5,	r2	
    100e:	69 6c       	addc.b	@r12,	r9	
    1010:	64 2d       	jc	$+714    	;abs 0x12da
    1012:	72 65       	addc.b	@r5+,	r2	
    1014:	73 75       	.word	0x7573;	????	Illegal as 2-op instr
    1016:	6c 74       	subc.b	@r4,	r12	
    1018:	2f 67       	addc	@r7,	r15	
    101a:	63 63       	.word	0x6363;	????	Illegal as 2-op instr
    101c:	00 47       	br	r7		
    101e:	4e 55       	add.b	r5,	r14	
    1020:	20 41       	br	@r1		
    1022:	53 20       	jnz	$+168    	;abs 0x10ca
    1024:	32 2e       	jc	$-922    	;abs 0xc8a
    1026:	32 31       	jn	$+614    	;abs 0x128c
    1028:	2e 31       	jn	$+606    	;abs 0x1286
    102a:	00 01       	.word	0x0100;	????	
    102c:	80 00       	Address 0x000000000000102c is out of bounds.
Address 0x000000000000102e is out of bounds.
and.b	@r15+,	-1(r15)	;0xffff(r15)

Disassembly of section .debug_abbrev:

00000000 <.debug_abbrev>:
   0:	01 11       	rra	r1		
   2:	01 25       	jz	$+516    	;abs 0x206
   4:	0e 13       	reti			;return from interupt
   6:	0b 03       	.word	0x030b;	????	
   8:	0e 1b       	.word	0x1b0e;	????	
   a:	0e 11       	rra	r14		
   c:	01 52       	add	r2,	r1	
   e:	01 55       	add	r5,	r1	
  10:	06 10       	rrc	r6		
  12:	06 00       	.word	0x0006;	????	
  14:	00 02       	.word	0x0200;	????	
  16:	24 00       	.word	0x0024;	????	
  18:	0b 0b       	.word	0x0b0b;	????	
  1a:	3e 0b       	.word	0x0b3e;	????	
  1c:	03 0e       	.word	0x0e03;	????	
  1e:	00 00       	.word	0x0000;	????	
  20:	03 24       	jz	$+8      	;abs 0x28
  22:	00 0b       	.word	0x0b00;	????	
  24:	0b 3e       	jmp	$-1000   	;abs 0xfc3c
  26:	0b 03       	.word	0x030b;	????	
  28:	08 00       	.word	0x0008;	????	
  2a:	00 04       	.word	0x0400;	????	
  2c:	2e 01       	.word	0x012e;	????	
  2e:	3f 0c       	.word	0x0c3f;	????	
  30:	03 0e       	.word	0x0e03;	????	
  32:	3a 0b       	.word	0x0b3a;	????	
  34:	3b 0b       	.word	0x0b3b;	????	
  36:	11 01       	.word	0x0111;	????	
  38:	12 01       	.word	0x0112;	????	
  3a:	40 06       	.word	0x0640;	????	
  3c:	01 13       	reti			;return from interupt
  3e:	00 00       	.word	0x0000;	????	
  40:	05 34       	jge	$+12     	;abs 0x4c
  42:	00 03       	.word	0x0300;	????	
  44:	0e 3a       	jl	$-994    	;abs 0xfc62
  46:	0b 3b       	jl	$-488    	;abs 0xfe5e
  48:	0b 49       	mov	r9,	r11	
  4a:	13 02       	.word	0x0213;	????	
  4c:	0a 00       	.word	0x000a;	????	
  4e:	00 06       	.word	0x0600;	????	
  50:	0b 01       	.word	0x010b;	????	
  52:	11 01       	.word	0x0111;	????	
  54:	12 01       	.word	0x0112;	????	
  56:	01 13       	reti			;return from interupt
  58:	00 00       	.word	0x0000;	????	
  5a:	07 34       	jge	$+16     	;abs 0x6a
  5c:	00 03       	.word	0x0300;	????	
  5e:	08 3a       	jl	$-1006   	;abs 0xfc70
  60:	0b 3b       	jl	$-488    	;abs 0xfe78
  62:	0b 49       	mov	r9,	r11	
  64:	13 02       	.word	0x0213;	????	
  66:	0a 00       	.word	0x000a;	????	
  68:	00 08       	.word	0x0800;	????	
  6a:	0b 01       	.word	0x010b;	????	
  6c:	11 01       	.word	0x0111;	????	
  6e:	12 01       	.word	0x0112;	????	
  70:	00 00       	.word	0x0000;	????	
  72:	09 01       	.word	0x0109;	????	
  74:	01 49       	mov	r9,	r1	
  76:	13 01       	.word	0x0113;	????	
  78:	13 00       	.word	0x0013;	????	
  7a:	00 0a       	.word	0x0a00;	????	
  7c:	21 00       	.word	0x0021;	????	
  7e:	49 13       	.word	0x1349;	????	
  80:	2f 0b       	.word	0x0b2f;	????	
  82:	00 00       	.word	0x0000;	????	
  84:	0b 2e       	jc	$-1000   	;abs 0xfc9c
  86:	00 3f       	jmp	$-510    	;abs 0xfe88
  88:	0c 03       	.word	0x030c;	????	
  8a:	0e 3a       	jl	$-994    	;abs 0xfca8
  8c:	0b 3b       	jl	$-488    	;abs 0xfea4
  8e:	0b 27       	jz	$-488    	;abs 0xfea6
  90:	0c 49       	mov	r9,	r12	
  92:	13 11       	rra	#1		;r3 As==01
  94:	01 12       	push	r1		
  96:	01 40       	mov	r0,	r1	
  98:	06 00       	.word	0x0006;	????	
  9a:	00 0c       	.word	0x0c00;	????	
  9c:	2e 00       	.word	0x002e;	????	
  9e:	3f 0c       	.word	0x0c3f;	????	
  a0:	03 0e       	.word	0x0e03;	????	
  a2:	3a 0b       	.word	0x0b3a;	????	
  a4:	3b 0b       	.word	0x0b3b;	????	
  a6:	27 0c       	.word	0x0c27;	????	
  a8:	11 01       	.word	0x0111;	????	
  aa:	12 01       	.word	0x0112;	????	
  ac:	40 06       	.word	0x0640;	????	
  ae:	00 00       	.word	0x0000;	????	
  b0:	0d 2e       	jc	$-996    	;abs 0xfccc
  b2:	00 3f       	jmp	$-510    	;abs 0xfeb4
  b4:	0c 03       	.word	0x030c;	????	
  b6:	0e 3a       	jl	$-994    	;abs 0xfcd4
  b8:	0b 3b       	jl	$-488    	;abs 0xfed0
  ba:	0b 27       	jz	$-488    	;abs 0xfed2
  bc:	0c 11       	rra	r12		
  be:	01 12       	push	r1		
  c0:	01 40       	mov	r0,	r1	
  c2:	0a 00       	.word	0x000a;	????	
  c4:	00 0e       	.word	0x0e00;	????	
  c6:	34 00       	.word	0x0034;	????	
  c8:	03 0e       	.word	0x0e03;	????	
  ca:	3a 0b       	.word	0x0b3a;	????	
  cc:	3b 05       	.word	0x053b;	????	
  ce:	87 40 0e 49 	mov	r0,	18702(r7);0x490e(r7)
  d2:	13 3f       	jmp	$-472    	;abs 0xfefa
  d4:	0c 3c       	jmp	$+26     	;abs 0xee
  d6:	0c 00       	.word	0x000c;	????	
  d8:	00 0f       	.word	0x0f00;	????	
  da:	35 00       	.word	0x0035;	????	
  dc:	49 13       	.word	0x1349;	????	
  de:	00 00       	.word	0x0000;	????	
  e0:	10 26       	jz	$-990    	;abs 0xfd02
  e2:	00 49       	br	r9		
  e4:	13 00       	.word	0x0013;	????	
  e6:	00 11       	rra	r0		
  e8:	34 00       	.word	0x0034;	????	
  ea:	03 0e       	.word	0x0e03;	????	
  ec:	3a 0b       	.word	0x0b3a;	????	
  ee:	3b 0b       	.word	0x0b3b;	????	
  f0:	49 13       	.word	0x1349;	????	
  f2:	3f 0c       	.word	0x0c3f;	????	
  f4:	02 0a       	.word	0x0a02;	????	
  f6:	00 00       	.word	0x0000;	????	
  f8:	12 34       	jge	$+38     	;abs 0x11e
  fa:	00 03       	.word	0x0300;	????	
  fc:	08 3a       	jl	$-1006   	;abs 0xfd0e
  fe:	0b 3b       	jl	$-488    	;abs 0xff16
 100:	0b 49       	mov	r9,	r11	
 102:	13 3f       	jmp	$-472    	;abs 0xff2a
 104:	0c 02       	.word	0x020c;	????	
 106:	0a 00       	.word	0x000a;	????	
 108:	00 00       	.word	0x0000;	????	
 10a:	01 11       	rra	r1		
 10c:	01 25       	jz	$+516    	;abs 0x310
 10e:	0e 13       	reti			;return from interupt
 110:	0b 03       	.word	0x030b;	????	
 112:	0e 1b       	.word	0x1b0e;	????	
 114:	0e 11       	rra	r14		
 116:	01 12       	push	r1		
 118:	01 10       	rrc	r1		
 11a:	06 00       	.word	0x0006;	????	
 11c:	00 02       	.word	0x0200;	????	
 11e:	24 00       	.word	0x0024;	????	
 120:	0b 0b       	.word	0x0b0b;	????	
 122:	3e 0b       	.word	0x0b3e;	????	
 124:	03 0e       	.word	0x0e03;	????	
 126:	00 00       	.word	0x0000;	????	
 128:	03 2e       	jc	$-1016   	;abs 0xfd30
 12a:	01 3f       	jmp	$-508    	;abs 0xff2e
 12c:	0c 03       	.word	0x030c;	????	
 12e:	0e 3a       	jl	$-994    	;abs 0xfd4c
 130:	0b 3b       	jl	$-488    	;abs 0xff48
 132:	0b 27       	jz	$-488    	;abs 0xff4a
 134:	0c 11       	rra	r12		
 136:	01 12       	push	r1		
 138:	01 40       	mov	r0,	r1	
 13a:	06 01       	.word	0x0106;	????	
 13c:	13 00       	.word	0x0013;	????	
 13e:	00 04       	.word	0x0400;	????	
 140:	05 00       	.word	0x0005;	????	
 142:	03 0e       	.word	0x0e03;	????	
 144:	3a 0b       	.word	0x0b3a;	????	
 146:	3b 0b       	.word	0x0b3b;	????	
 148:	49 13       	.word	0x1349;	????	
 14a:	02 0a       	.word	0x0a02;	????	
 14c:	00 00       	.word	0x0000;	????	
 14e:	05 0f       	.word	0x0f05;	????	
 150:	00 0b       	.word	0x0b00;	????	
 152:	0b 49       	mov	r9,	r11	
 154:	13 00       	.word	0x0013;	????	
 156:	00 06       	.word	0x0600;	????	
 158:	26 00       	.word	0x0026;	????	
 15a:	49 13       	.word	0x1349;	????	
 15c:	00 00       	.word	0x0000;	????	
 15e:	07 35       	jge	$+528    	;abs 0x36e
 160:	00 49       	br	r9		
 162:	13 00       	.word	0x0013;	????	
 164:	00 08       	.word	0x0800;	????	
 166:	34 00       	.word	0x0034;	????	
 168:	03 0e       	.word	0x0e03;	????	
 16a:	3a 0b       	.word	0x0b3a;	????	
 16c:	3b 0b       	.word	0x0b3b;	????	
 16e:	87 40 0e 49 	mov	r0,	18702(r7);0x490e(r7)
 172:	13 3f       	jmp	$-472    	;abs 0xff9a
 174:	0c 3c       	jmp	$+26     	;abs 0x18e
 176:	0c 00       	.word	0x000c;	????	
 178:	00 00       	.word	0x0000;	????	
 17a:	01 11       	rra	r1		
 17c:	01 25       	jz	$+516    	;abs 0x380
 17e:	0e 13       	reti			;return from interupt
 180:	0b 03       	.word	0x030b;	????	
 182:	0e 1b       	.word	0x1b0e;	????	
 184:	0e 11       	rra	r14		
 186:	01 12       	push	r1		
 188:	01 10       	rrc	r1		
 18a:	06 00       	.word	0x0006;	????	
 18c:	00 02       	.word	0x0200;	????	
 18e:	24 00       	.word	0x0024;	????	
 190:	0b 0b       	.word	0x0b0b;	????	
 192:	3e 0b       	.word	0x0b3e;	????	
 194:	03 0e       	.word	0x0e03;	????	
 196:	00 00       	.word	0x0000;	????	
 198:	03 24       	jz	$+8      	;abs 0x1a0
 19a:	00 0b       	.word	0x0b00;	????	
 19c:	0b 3e       	jmp	$-1000   	;abs 0xfdb4
 19e:	0b 03       	.word	0x030b;	????	
 1a0:	08 00       	.word	0x0008;	????	
 1a2:	00 04       	.word	0x0400;	????	
 1a4:	0f 00       	.word	0x000f;	????	
 1a6:	0b 0b       	.word	0x0b0b;	????	
 1a8:	49 13       	.word	0x1349;	????	
 1aa:	00 00       	.word	0x0000;	????	
 1ac:	05 2e       	jc	$-1012   	;abs 0xfdb8
 1ae:	01 3f       	jmp	$-508    	;abs 0xffb2
 1b0:	0c 03       	.word	0x030c;	????	
 1b2:	0e 3a       	jl	$-994    	;abs 0xfdd0
 1b4:	0b 3b       	jl	$-488    	;abs 0xffcc
 1b6:	0b 27       	jz	$-488    	;abs 0xffce
 1b8:	0c 11       	rra	r12		
 1ba:	01 12       	push	r1		
 1bc:	01 40       	mov	r0,	r1	
 1be:	06 00       	.word	0x0006;	????	
 1c0:	00 06       	.word	0x0600;	????	
 1c2:	05 00       	.word	0x0005;	????	
 1c4:	03 08       	.word	0x0803;	????	
 1c6:	3a 0b       	.word	0x0b3a;	????	
 1c8:	3b 0b       	.word	0x0b3b;	????	
 1ca:	49 13       	.word	0x1349;	????	
 1cc:	02 0a       	.word	0x0a02;	????	
 1ce:	00 00       	.word	0x0000;	????	
 1d0:	07 34       	jge	$+16     	;abs 0x1e0
 1d2:	00 03       	.word	0x0300;	????	
 1d4:	08 3a       	jl	$-1006   	;abs 0xfde6
 1d6:	0b 3b       	jl	$-488    	;abs 0xffee
 1d8:	0b 49       	mov	r9,	r11	
 1da:	13 02       	.word	0x0213;	????	
 1dc:	0a 00       	.word	0x000a;	????	
 1de:	00 00       	.word	0x0000;	????	
 1e0:	01 11       	rra	r1		
 1e2:	01 25       	jz	$+516    	;abs 0x3e6
 1e4:	0e 13       	reti			;return from interupt
 1e6:	0b 03       	.word	0x030b;	????	
 1e8:	0e 1b       	.word	0x1b0e;	????	
 1ea:	0e 11       	rra	r14		
 1ec:	01 12       	push	r1		
 1ee:	01 10       	rrc	r1		
 1f0:	06 00       	.word	0x0006;	????	
 1f2:	00 02       	.word	0x0200;	????	
 1f4:	16 00       	.word	0x0016;	????	
 1f6:	03 0e       	.word	0x0e03;	????	
 1f8:	3a 0b       	.word	0x0b3a;	????	
 1fa:	3b 0b       	.word	0x0b3b;	????	
 1fc:	49 13       	.word	0x1349;	????	
 1fe:	00 00       	.word	0x0000;	????	
 200:	03 0f       	.word	0x0f03;	????	
 202:	00 0b       	.word	0x0b00;	????	
 204:	0b 03       	.word	0x030b;	????	
 206:	0e 00       	.word	0x000e;	????	
 208:	00 04       	.word	0x0400;	????	
 20a:	2e 01       	.word	0x012e;	????	
 20c:	03 0e       	.word	0x0e03;	????	
 20e:	3a 0b       	.word	0x0b3a;	????	
 210:	3b 0b       	.word	0x0b3b;	????	
 212:	27 0c       	.word	0x0c27;	????	
 214:	11 01       	.word	0x0111;	????	
 216:	12 01       	.word	0x0112;	????	
 218:	40 06       	.word	0x0640;	????	
 21a:	01 13       	reti			;return from interupt
 21c:	00 00       	.word	0x0000;	????	
 21e:	05 05       	.word	0x0505;	????	
 220:	00 03       	.word	0x0300;	????	
 222:	08 3a       	jl	$-1006   	;abs 0xfe34
 224:	0b 3b       	jl	$-488    	;abs 0x3c
 226:	0b 49       	mov	r9,	r11	
 228:	13 02       	.word	0x0213;	????	
 22a:	06 00       	.word	0x0006;	????	
 22c:	00 06       	.word	0x0600;	????	
 22e:	34 00       	.word	0x0034;	????	
 230:	03 08       	.word	0x0803;	????	
 232:	3a 0b       	.word	0x0b3a;	????	
 234:	3b 0b       	.word	0x0b3b;	????	
 236:	49 13       	.word	0x1349;	????	
 238:	02 06       	.word	0x0602;	????	
 23a:	00 00       	.word	0x0000;	????	
 23c:	07 24       	jz	$+16     	;abs 0x24c
 23e:	00 0b       	.word	0x0b00;	????	
 240:	0b 3e       	jmp	$-1000   	;abs 0xfe58
 242:	0b 03       	.word	0x030b;	????	
 244:	0e 00       	.word	0x000e;	????	
 246:	00 08       	.word	0x0800;	????	
 248:	0f 00       	.word	0x000f;	????	
 24a:	0b 0b       	.word	0x0b0b;	????	
 24c:	49 13       	.word	0x1349;	????	
 24e:	00 00       	.word	0x0000;	????	
 250:	09 26       	jz	$-1004   	;abs 0xfe64
 252:	00 49       	br	r9		
 254:	13 00       	.word	0x0013;	????	
 256:	00 0a       	.word	0x0a00;	????	
 258:	2e 01       	.word	0x012e;	????	
 25a:	03 0e       	.word	0x0e03;	????	
 25c:	3a 0b       	.word	0x0b3a;	????	
 25e:	3b 0b       	.word	0x0b3b;	????	
 260:	27 0c       	.word	0x0c27;	????	
 262:	11 01       	.word	0x0111;	????	
 264:	12 01       	.word	0x0112;	????	
 266:	40 0a       	.word	0x0a40;	????	
 268:	01 13       	reti			;return from interupt
 26a:	00 00       	.word	0x0000;	????	
 26c:	0b 34       	jge	$+24     	;abs 0x284
 26e:	00 03       	.word	0x0300;	????	
 270:	08 3a       	jl	$-1006   	;abs 0xfe82
 272:	0b 3b       	jl	$-488    	;abs 0x8a
 274:	0b 49       	mov	r9,	r11	
 276:	13 02       	.word	0x0213;	????	
 278:	0a 00       	.word	0x000a;	????	
 27a:	00 0c       	.word	0x0c00;	????	
 27c:	01 01       	.word	0x0101;	????	
 27e:	49 13       	.word	0x1349;	????	
 280:	01 13       	reti			;return from interupt
 282:	00 00       	.word	0x0000;	????	
 284:	0d 21       	jnz	$+540    	;abs 0x4a0
 286:	00 49       	br	r9		
 288:	13 2f       	jc	$-472    	;abs 0xb0
 28a:	0b 00       	.word	0x000b;	????	
 28c:	00 0e       	.word	0x0e00;	????	
 28e:	2e 01       	.word	0x012e;	????	
 290:	3f 0c       	.word	0x0c3f;	????	
 292:	03 0e       	.word	0x0e03;	????	
 294:	3a 0b       	.word	0x0b3a;	????	
 296:	3b 0b       	.word	0x0b3b;	????	
 298:	27 0c       	.word	0x0c27;	????	
 29a:	11 01       	.word	0x0111;	????	
 29c:	12 01       	.word	0x0112;	????	
 29e:	40 06       	.word	0x0640;	????	
 2a0:	01 13       	reti			;return from interupt
 2a2:	00 00       	.word	0x0000;	????	
 2a4:	0f 05       	.word	0x050f;	????	
 2a6:	00 03       	.word	0x0300;	????	
 2a8:	0e 3a       	jl	$-994    	;abs 0xfec6
 2aa:	0b 3b       	jl	$-488    	;abs 0xc2
 2ac:	0b 49       	mov	r9,	r11	
 2ae:	13 02       	.word	0x0213;	????	
 2b0:	06 00       	.word	0x0006;	????	
 2b2:	00 10       	rrc	r0		
 2b4:	24 00       	.word	0x0024;	????	
 2b6:	0b 0b       	.word	0x0b0b;	????	
 2b8:	3e 0b       	.word	0x0b3e;	????	
 2ba:	03 08       	.word	0x0803;	????	
 2bc:	00 00       	.word	0x0000;	????	
 2be:	11 34       	jge	$+36     	;abs 0x2e2
 2c0:	00 03       	.word	0x0300;	????	
 2c2:	0e 3a       	jl	$-994    	;abs 0xfee0
 2c4:	0b 3b       	jl	$-488    	;abs 0xdc
 2c6:	0b 49       	mov	r9,	r11	
 2c8:	13 02       	.word	0x0213;	????	
 2ca:	0a 00       	.word	0x000a;	????	
 2cc:	00 12       	push	r0		
 2ce:	18 00       	.word	0x0018;	????	
 2d0:	00 00       	.word	0x0000;	????	
 2d2:	13 0a       	.word	0x0a13;	????	
 2d4:	00 03       	.word	0x0300;	????	
 2d6:	0e 3a       	jl	$-994    	;abs 0xfef4
 2d8:	0b 3b       	jl	$-488    	;abs 0xf0
 2da:	0b 11       	rra	r11		
 2dc:	01 00       	.word	0x0001;	????	
 2de:	00 00       	.word	0x0000;	????	
 2e0:	01 11       	rra	r1		
 2e2:	01 25       	jz	$+516    	;abs 0x4e6
 2e4:	0e 13       	reti			;return from interupt
 2e6:	0b 03       	.word	0x030b;	????	
 2e8:	0e 1b       	.word	0x1b0e;	????	
 2ea:	0e 11       	rra	r14		
 2ec:	01 12       	push	r1		
 2ee:	01 10       	rrc	r1		
 2f0:	06 00       	.word	0x0006;	????	
 2f2:	00 02       	.word	0x0200;	????	
 2f4:	2e 01       	.word	0x012e;	????	
 2f6:	3f 0c       	.word	0x0c3f;	????	
 2f8:	03 0e       	.word	0x0e03;	????	
 2fa:	3a 0b       	.word	0x0b3a;	????	
 2fc:	3b 0b       	.word	0x0b3b;	????	
 2fe:	27 0c       	.word	0x0c27;	????	
 300:	11 01       	.word	0x0111;	????	
 302:	12 01       	.word	0x0112;	????	
 304:	40 0a       	.word	0x0a40;	????	
 306:	01 13       	reti			;return from interupt
 308:	00 00       	.word	0x0000;	????	
 30a:	03 05       	.word	0x0503;	????	
 30c:	00 03       	.word	0x0300;	????	
 30e:	08 3a       	jl	$-1006   	;abs 0xff20
 310:	0b 3b       	jl	$-488    	;abs 0x128
 312:	0b 49       	mov	r9,	r11	
 314:	13 02       	.word	0x0213;	????	
 316:	06 00       	.word	0x0006;	????	
 318:	00 04       	.word	0x0400;	????	
 31a:	24 00       	.word	0x0024;	????	
 31c:	0b 0b       	.word	0x0b0b;	????	
 31e:	3e 0b       	.word	0x0b3e;	????	
 320:	03 0e       	.word	0x0e03;	????	
 322:	00 00       	.word	0x0000;	????	
 324:	05 2e       	jc	$-1012   	;abs 0xff30
 326:	00 3f       	jmp	$-510    	;abs 0x128
 328:	0c 03       	.word	0x030c;	????	
 32a:	0e 3a       	jl	$-994    	;abs 0xff48
 32c:	0b 3b       	jl	$-488    	;abs 0x144
 32e:	0b 49       	mov	r9,	r11	
 330:	13 11       	rra	#1		;r3 As==01
 332:	01 12       	push	r1		
 334:	01 40       	mov	r0,	r1	
 336:	0a 00       	.word	0x000a;	????	
 338:	00 00       	.word	0x0000;	????	
 33a:	01 11       	rra	r1		
 33c:	01 25       	jz	$+516    	;abs 0x540
 33e:	0e 13       	reti			;return from interupt
 340:	0b 03       	.word	0x030b;	????	
 342:	0e 1b       	.word	0x1b0e;	????	
 344:	0e 11       	rra	r14		
 346:	01 12       	push	r1		
 348:	01 10       	rrc	r1		
 34a:	06 00       	.word	0x0006;	????	
 34c:	00 02       	.word	0x0200;	????	
 34e:	24 00       	.word	0x0024;	????	
 350:	0b 0b       	.word	0x0b0b;	????	
 352:	3e 0b       	.word	0x0b3e;	????	
 354:	03 0e       	.word	0x0e03;	????	
 356:	00 00       	.word	0x0000;	????	
 358:	03 24       	jz	$+8      	;abs 0x360
 35a:	00 0b       	.word	0x0b00;	????	
 35c:	0b 3e       	jmp	$-1000   	;abs 0xff74
 35e:	0b 03       	.word	0x030b;	????	
 360:	08 00       	.word	0x0008;	????	
 362:	00 04       	.word	0x0400;	????	
 364:	2e 01       	.word	0x012e;	????	
 366:	3f 0c       	.word	0x0c3f;	????	
 368:	03 0e       	.word	0x0e03;	????	
 36a:	3a 0b       	.word	0x0b3a;	????	
 36c:	3b 0b       	.word	0x0b3b;	????	
 36e:	27 0c       	.word	0x0c27;	????	
 370:	11 01       	.word	0x0111;	????	
 372:	12 01       	.word	0x0112;	????	
 374:	40 0a       	.word	0x0a40;	????	
 376:	01 13       	reti			;return from interupt
 378:	00 00       	.word	0x0000;	????	
 37a:	05 05       	.word	0x0505;	????	
 37c:	00 03       	.word	0x0300;	????	
 37e:	0e 3a       	jl	$-994    	;abs 0xff9c
 380:	0b 3b       	jl	$-488    	;abs 0x198
 382:	0b 49       	mov	r9,	r11	
 384:	13 02       	.word	0x0213;	????	
 386:	0a 00       	.word	0x000a;	????	
 388:	00 06       	.word	0x0600;	????	
 38a:	05 00       	.word	0x0005;	????	
 38c:	03 0e       	.word	0x0e03;	????	
 38e:	3a 0b       	.word	0x0b3a;	????	
 390:	3b 0b       	.word	0x0b3b;	????	
 392:	49 13       	.word	0x1349;	????	
 394:	02 06       	.word	0x0602;	????	
 396:	00 00       	.word	0x0000;	????	
 398:	07 2e       	jc	$-1008   	;abs 0xffa8
 39a:	00 3f       	jmp	$-510    	;abs 0x19c
 39c:	0c 03       	.word	0x030c;	????	
 39e:	0e 3a       	jl	$-994    	;abs 0xffbc
 3a0:	0b 3b       	jl	$-488    	;abs 0x1b8
 3a2:	0b 49       	mov	r9,	r11	
 3a4:	13 11       	rra	#1		;r3 As==01
 3a6:	01 12       	push	r1		
 3a8:	01 40       	mov	r0,	r1	
 3aa:	0a 00       	.word	0x000a;	????	
 3ac:	00 08       	.word	0x0800;	????	
 3ae:	34 00       	.word	0x0034;	????	
 3b0:	03 0e       	.word	0x0e03;	????	
 3b2:	3a 0b       	.word	0x0b3a;	????	
 3b4:	3b 0b       	.word	0x0b3b;	????	
 3b6:	87 40 0e 49 	mov	r0,	18702(r7);0x490e(r7)
 3ba:	13 3f       	jmp	$-472    	;abs 0x1e2
 3bc:	0c 3c       	jmp	$+26     	;abs 0x3d6
 3be:	0c 00       	.word	0x000c;	????	
 3c0:	00 09       	.word	0x0900;	????	
 3c2:	35 00       	.word	0x0035;	????	
 3c4:	49 13       	.word	0x1349;	????	
 3c6:	00 00       	.word	0x0000;	????	
 3c8:	0a 34       	jge	$+22     	;abs 0x3de
 3ca:	00 03       	.word	0x0300;	????	
 3cc:	0e 3a       	jl	$-994    	;abs 0xffea
 3ce:	0b 3b       	jl	$-488    	;abs 0x1e6
 3d0:	05 87       	sub	r7,	r5	
 3d2:	40 0e       	.word	0x0e40;	????	
 3d4:	49 13       	.word	0x1349;	????	
 3d6:	3f 0c       	.word	0x0c3f;	????	
 3d8:	3c 0c       	.word	0x0c3c;	????	
 3da:	00 00       	.word	0x0000;	????	
 3dc:	0b 26       	jz	$-1000   	;abs 0xfff4
 3de:	00 49       	br	r9		
 3e0:	13 00       	.word	0x0013;	????	
 3e2:	00 00       	.word	0x0000;	????	
 3e4:	01 11       	rra	r1		
 3e6:	00 10       	rrc	r0		
 3e8:	06 11       	rra	r6		
 3ea:	01 12       	push	r1		
 3ec:	01 03       	.word	0x0301;	????	
 3ee:	08 1b       	.word	0x1b08;	????	
 3f0:	08 25       	jz	$+530    	;abs 0x602
 3f2:	08 13       	reti			;return from interupt
 3f4:	05 00       	.word	0x0005;	????	
 3f6:	00 00       	.word	0x0000;	????	
 3f8:	01 11       	rra	r1		
 3fa:	00 10       	rrc	r0		
 3fc:	06 11       	rra	r6		
 3fe:	01 12       	push	r1		
 400:	01 03       	.word	0x0301;	????	
 402:	08 1b       	.word	0x1b08;	????	
 404:	08 25       	jz	$+530    	;abs 0x616
 406:	08 13       	reti			;return from interupt
 408:	05 00       	.word	0x0005;	????	
 40a:	00 00       	.word	0x0000;	????	
 40c:	01 11       	rra	r1		
 40e:	00 10       	rrc	r0		
 410:	06 11       	rra	r6		
 412:	01 12       	push	r1		
 414:	01 03       	.word	0x0301;	????	
 416:	08 1b       	.word	0x1b08;	????	
 418:	08 25       	jz	$+530    	;abs 0x62a
 41a:	08 13       	reti			;return from interupt
 41c:	05 00       	.word	0x0005;	????	
 41e:	00 00       	.word	0x0000;	????	
 420:	01 11       	rra	r1		
 422:	00 10       	rrc	r0		
 424:	06 11       	rra	r6		
 426:	01 12       	push	r1		
 428:	01 03       	.word	0x0301;	????	
 42a:	08 1b       	.word	0x1b08;	????	
 42c:	08 25       	jz	$+530    	;abs 0x63e
 42e:	08 13       	reti			;return from interupt
 430:	05 00       	.word	0x0005;	????	
 432:	00 00       	.word	0x0000;	????	
 434:	01 11       	rra	r1		
 436:	00 10       	rrc	r0		
 438:	06 11       	rra	r6		
 43a:	01 12       	push	r1		
 43c:	01 03       	.word	0x0301;	????	
 43e:	08 1b       	.word	0x1b08;	????	
 440:	08 25       	jz	$+530    	;abs 0x652
 442:	08 13       	reti			;return from interupt
 444:	05 00       	.word	0x0005;	????	
 446:	00 00       	.word	0x0000;	????	
 448:	01 11       	rra	r1		
 44a:	00 10       	rrc	r0		
 44c:	06 11       	rra	r6		
 44e:	01 12       	push	r1		
 450:	01 03       	.word	0x0301;	????	
 452:	08 1b       	.word	0x1b08;	????	
 454:	08 25       	jz	$+530    	;abs 0x666
 456:	08 13       	reti			;return from interupt
 458:	05 00       	.word	0x0005;	????	
 45a:	00 00       	.word	0x0000;	????	
 45c:	01 11       	rra	r1		
 45e:	00 10       	rrc	r0		
 460:	06 11       	rra	r6		
 462:	01 12       	push	r1		
 464:	01 03       	.word	0x0301;	????	
 466:	08 1b       	.word	0x1b08;	????	
 468:	08 25       	jz	$+530    	;abs 0x67a
 46a:	08 13       	reti			;return from interupt
 46c:	05 00       	.word	0x0005;	????	
 46e:	00 00       	.word	0x0000;	????	
 470:	01 11       	rra	r1		
 472:	00 10       	rrc	r0		
 474:	06 11       	rra	r6		
 476:	01 12       	push	r1		
 478:	01 03       	.word	0x0301;	????	
 47a:	08 1b       	.word	0x1b08;	????	
 47c:	08 25       	jz	$+530    	;abs 0x68e
 47e:	08 13       	reti			;return from interupt
 480:	05 00       	.word	0x0005;	????	
	...

Disassembly of section .debug_line:

00000000 <.debug_line>:
   0:	74 01       	.word	0x0174;	????	
   2:	00 00       	.word	0x0000;	????	
   4:	02 00       	.word	0x0002;	????	
   6:	61 00       	.word	0x0061;	????	
   8:	00 00       	.word	0x0000;	????	
   a:	01 01       	.word	0x0101;	????	
   c:	fb 0e       	.word	0x0efb;	????	
   e:	0d 00       	.word	0x000d;	????	
  10:	01 01       	.word	0x0101;	????	
  12:	01 01       	.word	0x0101;	????	
  14:	00 00       	.word	0x0000;	????	
  16:	00 01       	.word	0x0100;	????	
  18:	00 00       	.word	0x0000;	????	
  1a:	01 2f       	jc	$-508    	;abs 0xfe1e
  1c:	75 73       	subc.b	#-1,	r5	;r3 As==11
  1e:	72 2f       	jc	$-282    	;abs 0xff04
  20:	6c 69       	addc.b	@r9,	r12	
  22:	62 2f       	jc	$-314    	;abs 0xfee8
  24:	67 63       	addc.b	#2,	r7	;r3 As==10
  26:	63 2f       	jc	$-312    	;abs 0xfeee
  28:	6d 73       	subc.b	#2,	r13	;r3 As==10
  2a:	70 34       	jge	$+226    	;abs 0x10c
  2c:	33 30       	jn	$+104    	;abs 0x94
  2e:	2f 34       	jge	$+96     	;abs 0x8e
  30:	2e 36       	jge	$-930    	;abs 0xfc8e
  32:	2e 33       	jn	$-418    	;abs 0xfe90
  34:	2f 2e       	jc	$-928    	;abs 0xfc94
  36:	2e 2f       	jc	$-418    	;abs 0xfe94
  38:	2e 2e       	jc	$-930    	;abs 0xfc96
  3a:	2f 2e       	jc	$-928    	;abs 0xfc9a
  3c:	2e 2f       	jc	$-418    	;abs 0xfe9a
  3e:	2e 2e       	jc	$-930    	;abs 0xfc9c
  40:	2f 6d       	addc	@r13,	r15	
  42:	73 70       	.word	0x7073;	????	Illegal as 2-op instr
  44:	34 33       	jn	$-406    	;abs 0xfeae
  46:	30 2f       	jc	$-414    	;abs 0xfea8
  48:	69 6e       	addc.b	@r14,	r9	
  4a:	63 6c       	.word	0x6c63;	????	Illegal as 2-op instr
  4c:	75 64       	addc.b	@r4+,	r5	
  4e:	65 00       	.word	0x0065;	????	
  50:	00 61       	addc	r1,	r0	
  52:	35 2e       	jc	$-916    	;abs 0xfcbe
  54:	63 00       	.word	0x0063;	????	
  56:	00 00       	.word	0x0000;	????	
  58:	00 6d       	addc	r13,	r0	
  5a:	73 70       	.word	0x7073;	????	Illegal as 2-op instr
  5c:	34 33       	jn	$-406    	;abs 0xfec6
  5e:	30 67       	addc	@r7+,	r0	
  60:	32 35       	jge	$+614    	;abs 0x2c6
  62:	35 33       	jn	$-404    	;abs 0xfece
  64:	2e 68       	addc	@r8,	r14	
  66:	00 01       	.word	0x0100;	????	
  68:	00 00       	.word	0x0000;	????	
  6a:	00 00       	.word	0x0000;	????	
  6c:	03 02       	.word	0x0203;	????	
  6e:	f2 c0 03 2f 	bic.b	#12035,	&0x4b01	;#0x2f03
  72:	01 4b 
  74:	4b 4c       	mov.b	r12,	r11	
  76:	f4 00       	.word	0x00f4;	????	
  78:	02 04       	.word	0x0402;	????	
  7a:	02 67       	addc	r7,	r2	
  7c:	00 02       	.word	0x0200;	????	
  7e:	04 02       	.word	0x0204;	????	
  80:	08 57       	add	r7,	r8	
  82:	00 02       	.word	0x0200;	????	
  84:	04 01       	.word	0x0104;	????	
  86:	06 4a       	mov	r10,	r6	
  88:	06 69       	addc	r9,	r6	
  8a:	a1 f3 f4 67 	and	#2,	26612(r1);r3 As==10, 0x67f4(r1)
  8e:	08 75       	subc	r5,	r8	
  90:	9f f3 d2 00 	and	#1,	210(r15);r3 As==01, 0x00d2(r15)
  94:	02 04       	.word	0x0402;	????	
  96:	01 06       	.word	0x0601;	????	
  98:	4a 06       	.word	0x064a;	????	
  9a:	6e 67       	addc.b	@r7,	r14	
  9c:	67 00       	.word	0x0067;	????	
  9e:	02 04       	.word	0x0402;	????	
  a0:	01 06       	.word	0x0601;	????	
  a2:	08 74       	subc	r4,	r8	
  a4:	06 02       	.word	0x0206;	????	
  a6:	2a 13       	reti			;return from interupt
  a8:	9f d7 ee 00 	bis	238(r7),1026(r15);0x00ee(r7), 0x0402(r15)
  ac:	02 04 
  ae:	01 06       	.word	0x0601;	????	
  b0:	4a 06       	.word	0x064a;	????	
  b2:	65 00       	.word	0x0065;	????	
  b4:	02 04       	.word	0x0402;	????	
  b6:	01 06       	.word	0x0601;	????	
  b8:	4a 06       	.word	0x064a;	????	
  ba:	03 0a       	.word	0x0a03;	????	
  bc:	66 08       	.word	0x0866;	????	
  be:	76 9f       	cmp.b	@r15+,	r6	
  c0:	83 9f       	cmp	r15,	#1	;r3 As==01
  c2:	4b 02       	.word	0x024b;	????	
  c4:	22 13       	reti			;return from interupt
  c6:	4b 4d       	mov.b	r13,	r11	
  c8:	00 02       	.word	0x0200;	????	
  ca:	04 01       	.word	0x0104;	????	
  cc:	06 9e       	cmp	r14,	r6	
  ce:	06 83       	sub	#0,	r6	;r3 As==00
  d0:	9f 02       	.word	0x029f;	????	
  d2:	22 13       	reti			;return from interupt
  d4:	4b 4b       	mov.b	r11,	r11	
  d6:	4d 83       	sub.b	#0,	r13	;r3 As==00
  d8:	03 35       	jge	$+520    	;abs 0x2e0
  da:	66 84       	sub.b	@r4,	r6	
  dc:	83 bc       	bit	r12,	#1	;r3 As==01
  de:	9f 4b 50 2a 	mov	10832(r11),162(r15);0x2a50(r11), 0x00a2(r15)
  e2:	a2 00 
  e4:	02 04       	.word	0x0402;	????	
  e6:	01 06       	.word	0x0601;	????	
  e8:	2e 06       	.word	0x062e;	????	
  ea:	9f 9f bb a2 	cmp	-23877(r15),-17587(r15);0xa2bb(r15), 0xbb4d(r15)
  ee:	4d bb 
  f0:	bb bd 83 a0 	bit	@r13+,	-24445(r11);0xa083(r11)
  f4:	85 08       	.word	0x0885;	????	
  f6:	21 08       	.word	0x0821;	????	
  f8:	23 83       	decd	#0		;r3 As==00
  fa:	d8 bd 9f 08 	bit.b	2207(r13),-24711(r8);0x089f(r13), 0x9f79(r8)
  fe:	79 9f 
 100:	bb bb 69 00 	bit	@r11+,	105(r11);0x0069(r11)
 104:	02 04       	.word	0x0402;	????	
 106:	01 06       	.word	0x0601;	????	
 108:	9e 06       	.word	0x069e;	????	
 10a:	9f bb bb 69 	bit	27067(r11),512(r15);0x69bb(r11), 0x0200(r15)
 10e:	00 02 
 110:	04 01       	.word	0x0104;	????	
 112:	06 9e       	cmp	r14,	r6	
 114:	06 9f       	cmp	r15,	r6	
 116:	bb bb 69 00 	bit	@r11+,	105(r11);0x0069(r11)
 11a:	02 04       	.word	0x0402;	????	
 11c:	01 06       	.word	0x0601;	????	
 11e:	9e 06       	.word	0x069e;	????	
 120:	9f bb 69 00 	bit	105(r11),1026(r15);0x0069(r11), 0x0402(r15)
 124:	02 04 
 126:	01 06       	.word	0x0601;	????	
 128:	9e 06       	.word	0x069e;	????	
 12a:	9f bb 9f 69 	bit	27039(r11),512(r15);0x699f(r11), 0x0200(r15)
 12e:	00 02 
 130:	04 01       	.word	0x0104;	????	
 132:	06 9e       	cmp	r14,	r6	
 134:	06 9f       	cmp	r15,	r6	
 136:	bb 9f 69 00 	cmp	@r15+,	105(r11);0x0069(r11)
 13a:	02 04       	.word	0x0402;	????	
 13c:	01 06       	.word	0x0601;	????	
 13e:	9e 06       	.word	0x069e;	????	
 140:	9f bb bb 69 	bit	27067(r11),-17505(r15);0x69bb(r11), 0xbb9f(r15)
 144:	9f bb 
 146:	bb 68 6a 14 	addc	@r8+,	5226(r11);0x146a(r11)
 14a:	02 02       	.word	0x0202;	????	
 14c:	00 01       	.word	0x0100;	????	
 14e:	01 00       	.word	0x0001;	????	
 150:	03 02       	.word	0x0203;	????	
 152:	3e c0 03 e6 	bic	#-6653,	r14	;#0xe603
 156:	00 01       	.word	0x0100;	????	
 158:	14 67 83 85 	addc	-31357(r7),r4	;0x8583(r7)
 15c:	bb 4c 67 69 	mov	@r12+,	26983(r11);0x6967(r11)
 160:	67 67       	addc.b	@r7,	r7	
 162:	69 9f       	cmp.b	@r15,	r9	
 164:	a1 85 bd 03 	sub	@r5,	957(r1)	;0x03bd(r1)
 168:	0d 4a       	mov	r10,	r13	
 16a:	03 77       	.word	0x7703;	????	Illegal as 2-op instr
 16c:	2e 83       	decd	r14		
 16e:	83 08       	.word	0x0883;	????	
 170:	3e d9       	bis	@r9+,	r14	
 172:	4c 02       	.word	0x024c;	????	
 174:	02 00       	.word	0x0002;	????	
 176:	01 01       	.word	0x0101;	????	
 178:	89 00       	.word	0x0089;	????	
 17a:	00 00       	.word	0x0000;	????	
 17c:	02 00       	.word	0x0002;	????	
 17e:	62 00       	.word	0x0062;	????	
 180:	00 00       	.word	0x0000;	????	
 182:	01 01       	.word	0x0101;	????	
 184:	fb 0e       	.word	0x0efb;	????	
 186:	0d 00       	.word	0x000d;	????	
 188:	01 01       	.word	0x0101;	????	
 18a:	01 01       	.word	0x0101;	????	
 18c:	00 00       	.word	0x0000;	????	
 18e:	00 01       	.word	0x0100;	????	
 190:	00 00       	.word	0x0000;	????	
 192:	01 2f       	jc	$-508    	;abs 0xff96
 194:	75 73       	subc.b	#-1,	r5	;r3 As==11
 196:	72 2f       	jc	$-282    	;abs 0x7c
 198:	6c 69       	addc.b	@r9,	r12	
 19a:	62 2f       	jc	$-314    	;abs 0x60
 19c:	67 63       	addc.b	#2,	r7	;r3 As==10
 19e:	63 2f       	jc	$-312    	;abs 0x66
 1a0:	6d 73       	subc.b	#2,	r13	;r3 As==10
 1a2:	70 34       	jge	$+226    	;abs 0x284
 1a4:	33 30       	jn	$+104    	;abs 0x20c
 1a6:	2f 34       	jge	$+96     	;abs 0x206
 1a8:	2e 36       	jge	$-930    	;abs 0xfe06
 1aa:	2e 33       	jn	$-418    	;abs 0x8
 1ac:	2f 2e       	jc	$-928    	;abs 0xfe0c
 1ae:	2e 2f       	jc	$-418    	;abs 0xc
 1b0:	2e 2e       	jc	$-930    	;abs 0xfe0e
 1b2:	2f 2e       	jc	$-928    	;abs 0xfe12
 1b4:	2e 2f       	jc	$-418    	;abs 0x12
 1b6:	2e 2e       	jc	$-930    	;abs 0xfe14
 1b8:	2f 6d       	addc	@r13,	r15	
 1ba:	73 70       	.word	0x7073;	????	Illegal as 2-op instr
 1bc:	34 33       	jn	$-406    	;abs 0x26
 1be:	30 2f       	jc	$-414    	;abs 0x20
 1c0:	69 6e       	addc.b	@r14,	r9	
 1c2:	63 6c       	.word	0x6c63;	????	Illegal as 2-op instr
 1c4:	75 64       	addc.b	@r4+,	r5	
 1c6:	65 00       	.word	0x0065;	????	
 1c8:	00 64       	addc	r4,	r0	
 1ca:	74 63       	addc.b	#-1,	r4	;r3 As==11
 1cc:	2e 63       	addc	#2,	r14	;r3 As==10
 1ce:	00 00       	.word	0x0000;	????	
 1d0:	00 00       	.word	0x0000;	????	
 1d2:	6d 73       	subc.b	#2,	r13	;r3 As==10
 1d4:	70 34       	jge	$+226    	;abs 0x2b6
 1d6:	33 30       	jn	$+104    	;abs 0x23e
 1d8:	67 32       	jn	$-816    	;abs 0xfea8
 1da:	35 35       	jge	$+620    	;abs 0x446
 1dc:	33 2e       	jc	$-920    	;abs 0xfe44
 1de:	68 00       	.word	0x0068;	????	
 1e0:	01 00       	.word	0x0001;	????	
 1e2:	00 00       	.word	0x0000;	????	
 1e4:	00 03       	.word	0x0300;	????	
 1e6:	02 76       	subc	r6,	r2	
 1e8:	c5 14       	.word	0x14c5;	????	
 1ea:	9f bb 4c 67 	bit	26444(r11),512(r15);0x674c(r11), 0x0200(r15)
 1ee:	00 02 
 1f0:	04 01       	.word	0x0104;	????	
 1f2:	06 2e       	jc	$-1010   	;abs 0xfe00
 1f4:	06 bb       	bit	r11,	r6	
 1f6:	4b 4b       	mov.b	r11,	r11	
 1f8:	83 bc       	bit	r12,	#1	;r3 As==01
 1fa:	a0 02       	.word	0x02a0;	????	
 1fc:	32 14       	.word	0x1432;	????	
 1fe:	9f 9f 02 04 	cmp	1026(r15),256(r15);0x0402(r15), 0x0100(r15)
 202:	00 01 
 204:	01 5d       	add	r13,	r1	
 206:	00 00       	.word	0x0000;	????	
 208:	00 02       	.word	0x0200;	????	
 20a:	00 1e       	.word	0x1e00;	????	
 20c:	00 00       	.word	0x0000;	????	
 20e:	00 01       	.word	0x0100;	????	
 210:	01 fb       	and	r11,	r1	
 212:	0e 0d       	.word	0x0d0e;	????	
 214:	00 01       	.word	0x0100;	????	
 216:	01 01       	.word	0x0101;	????	
 218:	01 00       	.word	0x0001;	????	
 21a:	00 00       	.word	0x0000;	????	
 21c:	01 00       	.word	0x0001;	????	
 21e:	00 01       	.word	0x0100;	????	
 220:	00 69       	addc	r9,	r0	
 222:	6e 70       	subc.b	@r0,	r14	
 224:	75 74       	subc.b	@r4+,	r5	
 226:	2e 63       	addc	#2,	r14	;r3 As==10
 228:	00 00       	.word	0x0000;	????	
 22a:	00 00       	.word	0x0000;	????	
 22c:	00 00       	.word	0x0000;	????	
 22e:	03 02       	.word	0x0203;	????	
 230:	14 c6 03 0c 	bic	3075(r6),r4	;0x0c03(r6)
 234:	01 83       	sub	#0,	r1	;r3 As==00
 236:	4c 83       	sub.b	#0,	r12	;r3 As==00
 238:	85 30       	jn	$+268    	;abs 0x344
 23a:	67 67       	addc.b	@r7,	r7	
 23c:	d7 67 83 86 	addc.b	-31101(r7),512(r7)	;0x8683(r7), 0x0200(r7)
 240:	00 02 
 242:	04 01       	.word	0x0104;	????	
 244:	06 82       	sub	r2,	r6	
 246:	06 02       	.word	0x0206;	????	
 248:	38 13       	reti			;return from interupt
 24a:	67 00       	.word	0x0067;	????	
 24c:	02 04       	.word	0x0402;	????	
 24e:	01 06       	.word	0x0601;	????	
 250:	82 06       	.word	0x0682;	????	
 252:	83 bc       	bit	r12,	#1	;r3 As==01
 254:	f3 87       	sub.b	@r7+,	#1	;r3 As==01
 256:	00 02       	.word	0x0200;	????	
 258:	04 01       	.word	0x0104;	????	
 25a:	03 6a       	.word	0x6a03;	????	Illegal as 2-op instr
 25c:	82 03       	.word	0x0382;	????	
 25e:	19 82 9f 02 	sub	&0x029f,r9	
 262:	06 00       	.word	0x0006;	????	
 264:	01 01       	.word	0x0101;	????	
 266:	07 01       	.word	0x0107;	????	
 268:	00 00       	.word	0x0000;	????	
 26a:	02 00       	.word	0x0002;	????	
 26c:	4c 00       	.word	0x004c;	????	
 26e:	00 00       	.word	0x0000;	????	
 270:	01 01       	.word	0x0101;	????	
 272:	fb 0e       	.word	0x0efb;	????	
 274:	0d 00       	.word	0x000d;	????	
 276:	01 01       	.word	0x0101;	????	
 278:	01 01       	.word	0x0101;	????	
 27a:	00 00       	.word	0x0000;	????	
 27c:	00 01       	.word	0x0100;	????	
 27e:	00 00       	.word	0x0000;	????	
 280:	01 2f       	jc	$-508    	;abs 0x84
 282:	75 73       	subc.b	#-1,	r5	;r3 As==11
 284:	72 2f       	jc	$-282    	;abs 0x16a
 286:	6c 69       	addc.b	@r9,	r12	
 288:	62 2f       	jc	$-314    	;abs 0x14e
 28a:	67 63       	addc.b	#2,	r7	;r3 As==10
 28c:	63 2f       	jc	$-312    	;abs 0x154
 28e:	6d 73       	subc.b	#2,	r13	;r3 As==10
 290:	70 34       	jge	$+226    	;abs 0x372
 292:	33 30       	jn	$+104    	;abs 0x2fa
 294:	2f 34       	jge	$+96     	;abs 0x2f4
 296:	2e 36       	jge	$-930    	;abs 0xfef4
 298:	2e 33       	jn	$-418    	;abs 0xf6
 29a:	2f 69       	addc	@r9,	r15	
 29c:	6e 63       	addc.b	#2,	r14	;r3 As==10
 29e:	6c 75       	subc.b	@r5,	r12	
 2a0:	64 65       	addc.b	@r5,	r4	
 2a2:	00 00       	.word	0x0000;	????	
 2a4:	63 6f       	.word	0x6f63;	????	Illegal as 2-op instr
 2a6:	6e 69       	addc.b	@r9,	r14	
 2a8:	6f 2e       	jc	$-800    	;abs 0xff88
 2aa:	63 00       	.word	0x0063;	????	
 2ac:	00 00       	.word	0x0000;	????	
 2ae:	00 73       	sbc	r0		
 2b0:	74 64       	addc.b	@r4+,	r4	
 2b2:	61 72       	subc.b	#4,	r1	;r2 As==10
 2b4:	67 2e       	jc	$-816    	;abs 0xff84
 2b6:	68 00       	.word	0x0068;	????	
 2b8:	01 00       	.word	0x0001;	????	
 2ba:	00 00       	.word	0x0000;	????	
 2bc:	00 03       	.word	0x0300;	????	
 2be:	02 fc       	and	r12,	r2	
 2c0:	c6 03       	.word	0x03c6;	????	
 2c2:	d9 00       	.word	0x00d9;	????	
 2c4:	01 f6       	and	r6,	r1	
 2c6:	00 02       	.word	0x0200;	????	
 2c8:	04 02       	.word	0x0204;	????	
 2ca:	9f 00       	.word	0x009f;	????	
 2cc:	02 04       	.word	0x0402;	????	
 2ce:	01 06       	.word	0x0601;	????	
 2d0:	2e 06       	.word	0x062e;	????	
 2d2:	bc 4b 4b 00 	mov	@r11+,	75(r12)	;0x004b(r12)
 2d6:	02 04       	.word	0x0402;	????	
 2d8:	02 06       	.word	0x0602;	????	
 2da:	2e 00       	.word	0x002e;	????	
 2dc:	02 04       	.word	0x0402;	????	
 2de:	01 66       	addc	r6,	r1	
 2e0:	06 bb       	bit	r11,	r6	
 2e2:	4b d8       	bis.b	r8,	r11	
 2e4:	83 03       	.word	0x0383;	????	
 2e6:	6c ba       	bit.b	@r10,	r12	
 2e8:	14 bb 03 42 	bit	16899(r11),r4	;0x4203(r11)
 2ec:	2e 4d       	mov	@r13,	r14	
 2ee:	2f 00       	.word	0x002f;	????	
 2f0:	02 04       	.word	0x0402;	????	
 2f2:	01 49       	mov	r9,	r1	
 2f4:	69 4d       	mov.b	@r13,	r9	
 2f6:	bf f3 83 00 	and	#-1,	131(r15);r3 As==11, 0x0083(r15)
 2fa:	02 04       	.word	0x0402;	????	
 2fc:	01 32       	jn	$-1020   	;abs 0xff00
 2fe:	00 02       	.word	0x0200;	????	
 300:	04 01       	.word	0x0104;	????	
 302:	08 21       	jnz	$+530    	;abs 0x514
 304:	00 02       	.word	0x0200;	????	
 306:	04 01       	.word	0x0104;	????	
 308:	b8 00       	.word	0x00b8;	????	
 30a:	02 04       	.word	0x0402;	????	
 30c:	02 06       	.word	0x0602;	????	
 30e:	82 06       	.word	0x0682;	????	
 310:	4f 00       	.word	0x004f;	????	
 312:	02 04       	.word	0x0402;	????	
 314:	02 03       	.word	0x0302;	????	
 316:	70 66       	addc.b	@r6+,	r0	
 318:	00 02       	.word	0x0200;	????	
 31a:	04 02       	.word	0x0204;	????	
 31c:	03 11       	rra	#0		;r3 As==00
 31e:	82 00       	.word	0x0082;	????	
 320:	02 04       	.word	0x0402;	????	
 322:	01 06       	.word	0x0601;	????	
 324:	66 00       	.word	0x0066;	????	
 326:	02 04       	.word	0x0402;	????	
 328:	01 06       	.word	0x0601;	????	
 32a:	49 69       	rlc.b	r9		
 32c:	bd 69 4b 08 	addc	@r9+,	2123(r13);0x084b(r13)
 330:	59 68 7e 6e 	addc.b	28286(r8),r9	;0x6e7e(r8)
 334:	03 29       	jnc	$+520    	;abs 0x53c
 336:	66 fa       	and.b	@r10,	r6	
 338:	2f 67       	addc	@r7,	r15	
 33a:	02 44       	mov	r4,	r2	
 33c:	14 bd bb 31 	bit	12731(r13),r4	;0x31bb(r13)
 340:	67 00       	.word	0x0067;	????	
 342:	02 04       	.word	0x0402;	????	
 344:	01 06       	.word	0x0601;	????	
 346:	66 06       	.word	0x0666;	????	
 348:	f3 da       	bis.b	@r10+,	#1	;r3 As==01
 34a:	9f 00       	.word	0x009f;	????	
 34c:	02 04       	.word	0x0402;	????	
 34e:	01 06       	.word	0x0601;	????	
 350:	66 06       	.word	0x0666;	????	
 352:	08 ad       	dadd	r13,	r8	
 354:	b8 31       	jn	$+882    	;abs 0x6c6
 356:	30 67       	addc	@r7+,	r0	
 358:	08 21       	jnz	$+530    	;abs 0x56a
 35a:	9f d7 03 66 	bis	26115(r7),898(r15);0x6603(r7), 0x0382(r15)
 35e:	82 03 
 360:	23 2e       	jc	$-952    	;abs 0xffa8
 362:	00 02       	.word	0x0200;	????	
 364:	04 01       	.word	0x0104;	????	
 366:	03 5d       	.word	0x5d03;	????	Illegal as 2-op instr
 368:	4a 03       	.word	0x034a;	????	
 36a:	26 66       	addc	@r6,	r6	
 36c:	02 0a       	.word	0x0a02;	????	
 36e:	00 01       	.word	0x0100;	????	
 370:	01 3d       	jmp	$+516    	;abs 0x574
 372:	00 00       	.word	0x0000;	????	
 374:	00 02       	.word	0x0200;	????	
 376:	00 25       	jz	$+514    	;abs 0x578
 378:	00 00       	.word	0x0000;	????	
 37a:	00 01       	.word	0x0100;	????	
 37c:	01 fb       	and	r11,	r1	
 37e:	0e 0d       	.word	0x0d0e;	????	
 380:	00 01       	.word	0x0100;	????	
 382:	01 01       	.word	0x0101;	????	
 384:	01 00       	.word	0x0001;	????	
 386:	00 00       	.word	0x0000;	????	
 388:	01 00       	.word	0x0001;	????	
 38a:	00 01       	.word	0x0100;	????	
 38c:	00 63       	adc	r0		
 38e:	6f 6e       	addc.b	@r14,	r15	
 390:	69 6f       	addc.b	@r15,	r9	
 392:	5f 73       	subc.b	#1,	r15	;r3 As==01
 394:	65 72       	subc.b	#4,	r5	;r2 As==10
 396:	69 61       	addc.b	@r1,	r9	
 398:	6c 2e       	jc	$-806    	;abs 0x72
 39a:	63 00       	.word	0x0063;	????	
 39c:	00 00       	.word	0x0000;	????	
 39e:	00 00       	.word	0x0000;	????	
 3a0:	00 03       	.word	0x0300;	????	
 3a2:	02 66       	addc	r6,	r2	
 3a4:	c9 03       	.word	0x03c9;	????	
 3a6:	17 01       	.word	0x0117;	????	
 3a8:	13 4b       	.word	0x4b13;	????	Illegal as 2-op instr
 3aa:	31 13       	reti			;return from interupt
 3ac:	4b 02       	.word	0x024b;	????	
 3ae:	02 00       	.word	0x0002;	????	
 3b0:	01 01       	.word	0x0101;	????	
 3b2:	bd 00       	.word	0x00bd;	????	
 3b4:	00 00       	.word	0x0000;	????	
 3b6:	02 00       	.word	0x0002;	????	
 3b8:	71 00       	.word	0x0071;	????	
 3ba:	00 00       	.word	0x0000;	????	
 3bc:	01 01       	.word	0x0101;	????	
 3be:	fb 0e       	.word	0x0efb;	????	
 3c0:	0d 00       	.word	0x000d;	????	
 3c2:	01 01       	.word	0x0101;	????	
 3c4:	01 01       	.word	0x0101;	????	
 3c6:	00 00       	.word	0x0000;	????	
 3c8:	00 01       	.word	0x0100;	????	
 3ca:	00 00       	.word	0x0000;	????	
 3cc:	01 2f       	jc	$-508    	;abs 0x1d0
 3ce:	75 73       	subc.b	#-1,	r5	;r3 As==11
 3d0:	72 2f       	jc	$-282    	;abs 0x2b6
 3d2:	6c 69       	addc.b	@r9,	r12	
 3d4:	62 2f       	jc	$-314    	;abs 0x29a
 3d6:	67 63       	addc.b	#2,	r7	;r3 As==10
 3d8:	63 2f       	jc	$-312    	;abs 0x2a0
 3da:	6d 73       	subc.b	#2,	r13	;r3 As==10
 3dc:	70 34       	jge	$+226    	;abs 0x4be
 3de:	33 30       	jn	$+104    	;abs 0x446
 3e0:	2f 34       	jge	$+96     	;abs 0x440
 3e2:	2e 36       	jge	$-930    	;abs 0x40
 3e4:	2e 33       	jn	$-418    	;abs 0x242
 3e6:	2f 2e       	jc	$-928    	;abs 0x46
 3e8:	2e 2f       	jc	$-418    	;abs 0x246
 3ea:	2e 2e       	jc	$-930    	;abs 0x48
 3ec:	2f 2e       	jc	$-928    	;abs 0x4c
 3ee:	2e 2f       	jc	$-418    	;abs 0x24c
 3f0:	2e 2e       	jc	$-930    	;abs 0x4e
 3f2:	2f 6d       	addc	@r13,	r15	
 3f4:	73 70       	.word	0x7073;	????	Illegal as 2-op instr
 3f6:	34 33       	jn	$-406    	;abs 0x260
 3f8:	30 2f       	jc	$-414    	;abs 0x25a
 3fa:	69 6e       	addc.b	@r14,	r9	
 3fc:	63 6c       	.word	0x6c63;	????	Illegal as 2-op instr
 3fe:	75 64       	addc.b	@r4+,	r5	
 400:	65 00       	.word	0x0065;	????	
 402:	00 73       	sbc	r0		
 404:	65 72       	subc.b	#4,	r5	;r2 As==10
 406:	69 61       	addc.b	@r1,	r9	
 408:	6c 5f       	add.b	@r15,	r12	
 40a:	75 73       	subc.b	#-1,	r5	;r3 As==11
 40c:	63 69       	.word	0x6963;	????	Illegal as 2-op instr
 40e:	5f 6d 73 70 	addc.b	28787(r13),r15	;0x7073(r13)
 412:	34 33       	jn	$-406    	;abs 0x27c
 414:	30 2e       	jc	$-926    	;abs 0x76
 416:	63 00       	.word	0x0063;	????	
 418:	00 00       	.word	0x0000;	????	
 41a:	00 6d       	addc	r13,	r0	
 41c:	73 70       	.word	0x7073;	????	Illegal as 2-op instr
 41e:	34 33       	jn	$-406    	;abs 0x288
 420:	30 67       	addc	@r7+,	r0	
 422:	32 35       	jge	$+614    	;abs 0x688
 424:	35 33       	jn	$-404    	;abs 0x290
 426:	2e 68       	addc	@r8,	r14	
 428:	00 01       	.word	0x0100;	????	
 42a:	00 00       	.word	0x0000;	????	
 42c:	00 00       	.word	0x0000;	????	
 42e:	03 02       	.word	0x0203;	????	
 430:	72 c9       	bic.b	@r9+,	r2	
 432:	03 2a       	jnc	$-1016   	;abs 0x3a
 434:	01 13       	reti			;return from interupt
 436:	67 67       	addc.b	@r7,	r7	
 438:	68 03       	.word	0x0368;	????	
 43a:	0a 08       	.word	0x080a;	????	
 43c:	ac 02       	.word	0x02ac;	????	
 43e:	2e 14       	.word	0x142e;	????	
 440:	d7 bd bf 02 	bit.b	703(r13),5166(r7);0x02bf(r13), 0x142e(r7)
 444:	2e 14 
 446:	84 d7 bb bb 	bis	r7,	-17477(r4);0xbbbb(r4)
 44a:	da bb d7 d7 	bit.b	-10281(r11),19364(r10);0xd7d7(r11), 0x4ba4(r10)
 44e:	a4 4b 
 450:	67 03       	.word	0x0367;	????	
 452:	4b 2e       	jc	$-872    	;abs 0xea
 454:	13 d7       	.word	0xd713;	????	Illegal as 2-op instr
 456:	03 36       	jge	$-1016   	;abs 0x5e
 458:	2e 13       	reti			;return from interupt
 45a:	4b 31       	jn	$+664    	;abs 0x6f2
 45c:	00 02       	.word	0x0200;	????	
 45e:	04 01       	.word	0x0104;	????	
 460:	13 83       	dec	#0		;r3 As==00
 462:	4b 31       	jn	$+664    	;abs 0x6fa
 464:	13 4b       	.word	0x4b13;	????	Illegal as 2-op instr
 466:	31 00       	.word	0x0031;	????	
 468:	02 04       	.word	0x0402;	????	
 46a:	01 13       	reti			;return from interupt
 46c:	83 4b       	mov	r11,	#1	;r3 As==01
 46e:	02 02       	.word	0x0202;	????	
 470:	00 01       	.word	0x0100;	????	
 472:	01 ae       	dadd	r14,	r1	
 474:	00 00       	.word	0x0000;	????	
 476:	00 02       	.word	0x0200;	????	
 478:	00 81       	sub	r1,	r0	
 47a:	00 00       	.word	0x0000;	????	
 47c:	00 01       	.word	0x0100;	????	
 47e:	01 fb       	and	r11,	r1	
 480:	0e 0d       	.word	0x0d0e;	????	
 482:	00 01       	.word	0x0100;	????	
 484:	01 01       	.word	0x0101;	????	
 486:	01 00       	.word	0x0001;	????	
 488:	00 00       	.word	0x0000;	????	
 48a:	01 00       	.word	0x0001;	????	
 48c:	00 01       	.word	0x0100;	????	
 48e:	2f 62       	addc	#4,	r15	;r2 As==10
 490:	75 69       	addc.b	@r9+,	r5	
 492:	6c 64       	addc.b	@r4,	r12	
 494:	2f 67       	addc	@r7,	r15	
 496:	63 63       	.word	0x6363;	????	Illegal as 2-op instr
 498:	2d 6d       	addc	@r13,	r13	
 49a:	73 70       	.word	0x7073;	????	Illegal as 2-op instr
 49c:	34 33       	jn	$-406    	;abs 0x306
 49e:	30 2d       	jc	$+610    	;abs 0x700
 4a0:	52 32       	jn	$-858    	;abs 0x146
 4a2:	61 38       	jl	$+196    	;abs 0x566
 4a4:	4e 33       	jn	$-354    	;abs 0x342
 4a6:	2f 67       	addc	@r7,	r15	
 4a8:	63 63       	.word	0x6363;	????	Illegal as 2-op instr
 4aa:	2d 6d       	addc	@r13,	r13	
 4ac:	73 70       	.word	0x7073;	????	Illegal as 2-op instr
 4ae:	34 33       	jn	$-406    	;abs 0x318
 4b0:	30 2d       	jc	$+610    	;abs 0x712
 4b2:	34 2e       	jc	$-918    	;abs 0x11c
 4b4:	36 2e       	jc	$-914    	;abs 0x122
 4b6:	33 7e       	.word	0x7e33;	????	Illegal as 2-op instr
 4b8:	6d 73       	subc.b	#2,	r13	;r3 As==10
 4ba:	70 67       	addc.b	@r7+,	r0	
 4bc:	63 63       	.word	0x6363;	????	Illegal as 2-op instr
 4be:	2d 32       	jn	$-932    	;abs 0x11a
 4c0:	30 31       	jn	$+610    	;abs 0x722
 4c2:	32 30       	jn	$+102    	;abs 0x528
 4c4:	34 30       	jn	$+106    	;abs 0x52e
 4c6:	36 2f       	jc	$-402    	;abs 0x334
 4c8:	2e 2f       	jc	$-418    	;abs 0x326
 4ca:	67 63       	addc.b	#2,	r7	;r3 As==10
 4cc:	63 2d       	jc	$+712    	;abs 0x794
 4ce:	34 2e       	jc	$-918    	;abs 0x138
 4d0:	36 2e       	jc	$-914    	;abs 0x13e
 4d2:	33 2f       	jc	$-408    	;abs 0x33a
 4d4:	6c 69       	addc.b	@r9,	r12	
 4d6:	62 67       	addc.b	@r7,	r2	
 4d8:	63 63       	.word	0x6363;	????	Illegal as 2-op instr
 4da:	2f 2e       	jc	$-928    	;abs 0x13a
 4dc:	2e 2f       	jc	$-418    	;abs 0x33a
 4de:	67 63       	addc.b	#2,	r7	;r3 As==10
 4e0:	63 2f       	jc	$-312    	;abs 0x3a8
 4e2:	63 6f       	.word	0x6f63;	????	Illegal as 2-op instr
 4e4:	6e 66       	addc.b	@r6,	r14	
 4e6:	69 67       	addc.b	@r7,	r9	
 4e8:	2f 6d       	addc	@r13,	r15	
 4ea:	73 70       	.word	0x7073;	????	Illegal as 2-op instr
 4ec:	34 33       	jn	$-406    	;abs 0x356
 4ee:	30 00       	.word	0x0030;	????	
 4f0:	00 6c       	addc	r12,	r0	
 4f2:	69 62       	addc.b	#4,	r9	;r2 As==10
 4f4:	67 63       	addc.b	#2,	r7	;r3 As==10
 4f6:	63 2e       	jc	$-824    	;abs 0x1be
 4f8:	53 00       	.word	0x0053;	????	
 4fa:	01 00       	.word	0x0001;	????	
 4fc:	00 00       	.word	0x0000;	????	
 4fe:	00 03       	.word	0x0300;	????	
 500:	02 d4       	bis	r4,	r2	
 502:	ca 03       	.word	0x03ca;	????	
 504:	c6 04       	.word	0x04c6;	????	
 506:	01 2f       	jc	$-508    	;abs 0x30a
 508:	2f 2f       	jc	$-416    	;abs 0x368
 50a:	4b 2f       	jc	$-360    	;abs 0x3a2
 50c:	2f 2f       	jc	$-416    	;abs 0x36c
 50e:	2f 2f       	jc	$-416    	;abs 0x36e
 510:	2f 2f       	jc	$-416    	;abs 0x370
 512:	2f 4b       	mov	@r11,	r15	
 514:	2f 2f       	jc	$-416    	;abs 0x374
 516:	2f 2f       	jc	$-416    	;abs 0x376
 518:	2f 2f       	jc	$-416    	;abs 0x378
 51a:	2f 2f       	jc	$-416    	;abs 0x37a
 51c:	2f 34       	jge	$+96     	;abs 0x57c
 51e:	4b 2f       	jc	$-360    	;abs 0x3b6
 520:	02 02       	.word	0x0202;	????	
 522:	00 01       	.word	0x0100;	????	
 524:	01 a3       	dadc	r1		
 526:	00 00       	.word	0x0000;	????	
 528:	00 02       	.word	0x0200;	????	
 52a:	00 81       	sub	r1,	r0	
 52c:	00 00       	.word	0x0000;	????	
 52e:	00 01       	.word	0x0100;	????	
 530:	01 fb       	and	r11,	r1	
 532:	0e 0d       	.word	0x0d0e;	????	
 534:	00 01       	.word	0x0100;	????	
 536:	01 01       	.word	0x0101;	????	
 538:	01 00       	.word	0x0001;	????	
 53a:	00 00       	.word	0x0000;	????	
 53c:	01 00       	.word	0x0001;	????	
 53e:	00 01       	.word	0x0100;	????	
 540:	2f 62       	addc	#4,	r15	;r2 As==10
 542:	75 69       	addc.b	@r9+,	r5	
 544:	6c 64       	addc.b	@r4,	r12	
 546:	2f 67       	addc	@r7,	r15	
 548:	63 63       	.word	0x6363;	????	Illegal as 2-op instr
 54a:	2d 6d       	addc	@r13,	r13	
 54c:	73 70       	.word	0x7073;	????	Illegal as 2-op instr
 54e:	34 33       	jn	$-406    	;abs 0x3b8
 550:	30 2d       	jc	$+610    	;abs 0x7b2
 552:	52 32       	jn	$-858    	;abs 0x1f8
 554:	61 38       	jl	$+196    	;abs 0x618
 556:	4e 33       	jn	$-354    	;abs 0x3f4
 558:	2f 67       	addc	@r7,	r15	
 55a:	63 63       	.word	0x6363;	????	Illegal as 2-op instr
 55c:	2d 6d       	addc	@r13,	r13	
 55e:	73 70       	.word	0x7073;	????	Illegal as 2-op instr
 560:	34 33       	jn	$-406    	;abs 0x3ca
 562:	30 2d       	jc	$+610    	;abs 0x7c4
 564:	34 2e       	jc	$-918    	;abs 0x1ce
 566:	36 2e       	jc	$-914    	;abs 0x1d4
 568:	33 7e       	.word	0x7e33;	????	Illegal as 2-op instr
 56a:	6d 73       	subc.b	#2,	r13	;r3 As==10
 56c:	70 67       	addc.b	@r7+,	r0	
 56e:	63 63       	.word	0x6363;	????	Illegal as 2-op instr
 570:	2d 32       	jn	$-932    	;abs 0x1cc
 572:	30 31       	jn	$+610    	;abs 0x7d4
 574:	32 30       	jn	$+102    	;abs 0x5da
 576:	34 30       	jn	$+106    	;abs 0x5e0
 578:	36 2f       	jc	$-402    	;abs 0x3e6
 57a:	2e 2f       	jc	$-418    	;abs 0x3d8
 57c:	67 63       	addc.b	#2,	r7	;r3 As==10
 57e:	63 2d       	jc	$+712    	;abs 0x846
 580:	34 2e       	jc	$-918    	;abs 0x1ea
 582:	36 2e       	jc	$-914    	;abs 0x1f0
 584:	33 2f       	jc	$-408    	;abs 0x3ec
 586:	6c 69       	addc.b	@r9,	r12	
 588:	62 67       	addc.b	@r7,	r2	
 58a:	63 63       	.word	0x6363;	????	Illegal as 2-op instr
 58c:	2f 2e       	jc	$-928    	;abs 0x1ec
 58e:	2e 2f       	jc	$-418    	;abs 0x3ec
 590:	67 63       	addc.b	#2,	r7	;r3 As==10
 592:	63 2f       	jc	$-312    	;abs 0x45a
 594:	63 6f       	.word	0x6f63;	????	Illegal as 2-op instr
 596:	6e 66       	addc.b	@r6,	r14	
 598:	69 67       	addc.b	@r7,	r9	
 59a:	2f 6d       	addc	@r13,	r15	
 59c:	73 70       	.word	0x7073;	????	Illegal as 2-op instr
 59e:	34 33       	jn	$-406    	;abs 0x408
 5a0:	30 00       	.word	0x0030;	????	
 5a2:	00 6c       	addc	r12,	r0	
 5a4:	69 62       	addc.b	#4,	r9	;r2 As==10
 5a6:	67 63       	addc.b	#2,	r7	;r3 As==10
 5a8:	63 2e       	jc	$-824    	;abs 0x270
 5aa:	53 00       	.word	0x0053;	????	
 5ac:	01 00       	.word	0x0001;	????	
 5ae:	00 00       	.word	0x0000;	????	
 5b0:	00 03       	.word	0x0300;	????	
 5b2:	02 0e       	.word	0x0e02;	????	
 5b4:	cb 03       	.word	0x03cb;	????	
 5b6:	a4 04       	.word	0x04a4;	????	
 5b8:	01 4b       	mov	r11,	r1	
 5ba:	2f 2f       	jc	$-416    	;abs 0x41a
 5bc:	2f 2f       	jc	$-416    	;abs 0x41c
 5be:	2f 2f       	jc	$-416    	;abs 0x41e
 5c0:	2f 2f       	jc	$-416    	;abs 0x420
 5c2:	2f 2f       	jc	$-416    	;abs 0x422
 5c4:	34 4b       	mov	@r11+,	r4	
 5c6:	2f 02       	.word	0x022f;	????	
 5c8:	02 00       	.word	0x0002;	????	
 5ca:	01 01       	.word	0x0101;	????	
 5cc:	8b 00       	.word	0x008b;	????	
 5ce:	00 00       	.word	0x0000;	????	
 5d0:	02 00       	.word	0x0002;	????	
 5d2:	75 00       	.word	0x0075;	????	
 5d4:	00 00       	.word	0x0000;	????	
 5d6:	01 01       	.word	0x0101;	????	
 5d8:	fb 0e       	.word	0x0efb;	????	
 5da:	0d 00       	.word	0x000d;	????	
 5dc:	01 01       	.word	0x0101;	????	
 5de:	01 01       	.word	0x0101;	????	
 5e0:	00 00       	.word	0x0000;	????	
 5e2:	00 01       	.word	0x0100;	????	
 5e4:	00 00       	.word	0x0000;	????	
 5e6:	01 2f       	jc	$-508    	;abs 0x3ea
 5e8:	62 75       	subc.b	@r5,	r2	
 5ea:	69 6c       	addc.b	@r12,	r9	
 5ec:	64 2f       	jc	$-310    	;abs 0x4b6
 5ee:	67 63       	addc.b	#2,	r7	;r3 As==10
 5f0:	63 2d       	jc	$+712    	;abs 0x8b8
 5f2:	6d 73       	subc.b	#2,	r13	;r3 As==10
 5f4:	70 34       	jge	$+226    	;abs 0x6d6
 5f6:	33 30       	jn	$+104    	;abs 0x65e
 5f8:	2d 52       	add	#4,	r13	;r2 As==10
 5fa:	32 61       	addc	@r1+,	r2	
 5fc:	38 4e       	mov	@r14+,	r8	
 5fe:	33 2f       	jc	$-408    	;abs 0x466
 600:	67 63       	addc.b	#2,	r7	;r3 As==10
 602:	63 2d       	jc	$+712    	;abs 0x8ca
 604:	6d 73       	subc.b	#2,	r13	;r3 As==10
 606:	70 34       	jge	$+226    	;abs 0x6e8
 608:	33 30       	jn	$+104    	;abs 0x670
 60a:	2d 34       	jge	$+92     	;abs 0x666
 60c:	2e 36       	jge	$-930    	;abs 0x26a
 60e:	2e 33       	jn	$-418    	;abs 0x46c
 610:	7e 6d       	addc.b	@r13+,	r14	
 612:	73 70       	.word	0x7073;	????	Illegal as 2-op instr
 614:	67 63       	addc.b	#2,	r7	;r3 As==10
 616:	63 2d       	jc	$+712    	;abs 0x8de
 618:	32 30       	jn	$+102    	;abs 0x67e
 61a:	31 32       	jn	$-924    	;abs 0x27e
 61c:	30 34       	jge	$+98     	;abs 0x67e
 61e:	30 36       	jge	$-926    	;abs 0x280
 620:	2f 2e       	jc	$-928    	;abs 0x280
 622:	2f 67       	addc	@r7,	r15	
 624:	63 63       	.word	0x6363;	????	Illegal as 2-op instr
 626:	2d 34       	jge	$+92     	;abs 0x682
 628:	2e 36       	jge	$-930    	;abs 0x286
 62a:	2e 33       	jn	$-418    	;abs 0x488
 62c:	2f 67       	addc	@r7,	r15	
 62e:	63 63       	.word	0x6363;	????	Illegal as 2-op instr
 630:	2f 63       	addc	#2,	r15	;r3 As==10
 632:	6f 6e       	addc.b	@r14,	r15	
 634:	66 69       	addc.b	@r9,	r6	
 636:	67 2f       	jc	$-304    	;abs 0x506
 638:	6d 73       	subc.b	#2,	r13	;r3 As==10
 63a:	70 34       	jge	$+226    	;abs 0x71c
 63c:	33 30       	jn	$+104    	;abs 0x6a4
 63e:	00 00       	.word	0x0000;	????	
 640:	63 72       	.word	0x7263;	????	Illegal as 2-op instr
 642:	74 30       	jn	$+234    	;abs 0x72c
 644:	2e 53       	incd	r14		
 646:	00 01       	.word	0x0100;	????	
 648:	00 00       	.word	0x0000;	????	
 64a:	00 00       	.word	0x0000;	????	
 64c:	03 02       	.word	0x0203;	????	
 64e:	00 c0       	bic	r0,	r0	
 650:	03 e8       	.word	0xe803;	????	Illegal as 2-op instr
 652:	00 01       	.word	0x0100;	????	
 654:	4b 4b       	mov.b	r11,	r11	
 656:	02 04       	.word	0x0402;	????	
 658:	00 01       	.word	0x0100;	????	
 65a:	01 89       	sub	r9,	r1	
 65c:	00 00       	.word	0x0000;	????	
 65e:	00 02       	.word	0x0200;	????	
 660:	00 75       	subc	r5,	r0	
 662:	00 00       	.word	0x0000;	????	
 664:	00 01       	.word	0x0100;	????	
 666:	01 fb       	and	r11,	r1	
 668:	0e 0d       	.word	0x0d0e;	????	
 66a:	00 01       	.word	0x0100;	????	
 66c:	01 01       	.word	0x0101;	????	
 66e:	01 00       	.word	0x0001;	????	
 670:	00 00       	.word	0x0000;	????	
 672:	01 00       	.word	0x0001;	????	
 674:	00 01       	.word	0x0100;	????	
 676:	2f 62       	addc	#4,	r15	;r2 As==10
 678:	75 69       	addc.b	@r9+,	r5	
 67a:	6c 64       	addc.b	@r4,	r12	
 67c:	2f 67       	addc	@r7,	r15	
 67e:	63 63       	.word	0x6363;	????	Illegal as 2-op instr
 680:	2d 6d       	addc	@r13,	r13	
 682:	73 70       	.word	0x7073;	????	Illegal as 2-op instr
 684:	34 33       	jn	$-406    	;abs 0x4ee
 686:	30 2d       	jc	$+610    	;abs 0x8e8
 688:	52 32       	jn	$-858    	;abs 0x32e
 68a:	61 38       	jl	$+196    	;abs 0x74e
 68c:	4e 33       	jn	$-354    	;abs 0x52a
 68e:	2f 67       	addc	@r7,	r15	
 690:	63 63       	.word	0x6363;	????	Illegal as 2-op instr
 692:	2d 6d       	addc	@r13,	r13	
 694:	73 70       	.word	0x7073;	????	Illegal as 2-op instr
 696:	34 33       	jn	$-406    	;abs 0x500
 698:	30 2d       	jc	$+610    	;abs 0x8fa
 69a:	34 2e       	jc	$-918    	;abs 0x304
 69c:	36 2e       	jc	$-914    	;abs 0x30a
 69e:	33 7e       	.word	0x7e33;	????	Illegal as 2-op instr
 6a0:	6d 73       	subc.b	#2,	r13	;r3 As==10
 6a2:	70 67       	addc.b	@r7+,	r0	
 6a4:	63 63       	.word	0x6363;	????	Illegal as 2-op instr
 6a6:	2d 32       	jn	$-932    	;abs 0x302
 6a8:	30 31       	jn	$+610    	;abs 0x90a
 6aa:	32 30       	jn	$+102    	;abs 0x710
 6ac:	34 30       	jn	$+106    	;abs 0x716
 6ae:	36 2f       	jc	$-402    	;abs 0x51c
 6b0:	2e 2f       	jc	$-418    	;abs 0x50e
 6b2:	67 63       	addc.b	#2,	r7	;r3 As==10
 6b4:	63 2d       	jc	$+712    	;abs 0x97c
 6b6:	34 2e       	jc	$-918    	;abs 0x320
 6b8:	36 2e       	jc	$-914    	;abs 0x326
 6ba:	33 2f       	jc	$-408    	;abs 0x522
 6bc:	67 63       	addc.b	#2,	r7	;r3 As==10
 6be:	63 2f       	jc	$-312    	;abs 0x586
 6c0:	63 6f       	.word	0x6f63;	????	Illegal as 2-op instr
 6c2:	6e 66       	addc.b	@r6,	r14	
 6c4:	69 67       	addc.b	@r7,	r9	
 6c6:	2f 6d       	addc	@r13,	r15	
 6c8:	73 70       	.word	0x7073;	????	Illegal as 2-op instr
 6ca:	34 33       	jn	$-406    	;abs 0x534
 6cc:	30 00       	.word	0x0030;	????	
 6ce:	00 63       	adc	r0		
 6d0:	72 74       	subc.b	@r4+,	r2	
 6d2:	30 2e       	jc	$-926    	;abs 0x334
 6d4:	53 00       	.word	0x0053;	????	
 6d6:	01 00       	.word	0x0001;	????	
 6d8:	00 00       	.word	0x0000;	????	
 6da:	00 03       	.word	0x0300;	????	
 6dc:	02 0c       	.word	0x0c02;	????	
 6de:	c0 03       	.word	0x03c0;	????	
 6e0:	99 01       	.word	0x0199;	????	
 6e2:	01 02       	.word	0x0201;	????	
 6e4:	04 00       	.word	0x0004;	????	
 6e6:	01 01       	.word	0x0101;	????	
 6e8:	8f 00       	.word	0x008f;	????	
 6ea:	00 00       	.word	0x0000;	????	
 6ec:	02 00       	.word	0x0002;	????	
 6ee:	75 00       	.word	0x0075;	????	
 6f0:	00 00       	.word	0x0000;	????	
 6f2:	01 01       	.word	0x0101;	????	
 6f4:	fb 0e       	.word	0x0efb;	????	
 6f6:	0d 00       	.word	0x000d;	????	
 6f8:	01 01       	.word	0x0101;	????	
 6fa:	01 01       	.word	0x0101;	????	
 6fc:	00 00       	.word	0x0000;	????	
 6fe:	00 01       	.word	0x0100;	????	
 700:	00 00       	.word	0x0000;	????	
 702:	01 2f       	jc	$-508    	;abs 0x506
 704:	62 75       	subc.b	@r5,	r2	
 706:	69 6c       	addc.b	@r12,	r9	
 708:	64 2f       	jc	$-310    	;abs 0x5d2
 70a:	67 63       	addc.b	#2,	r7	;r3 As==10
 70c:	63 2d       	jc	$+712    	;abs 0x9d4
 70e:	6d 73       	subc.b	#2,	r13	;r3 As==10
 710:	70 34       	jge	$+226    	;abs 0x7f2
 712:	33 30       	jn	$+104    	;abs 0x77a
 714:	2d 52       	add	#4,	r13	;r2 As==10
 716:	32 61       	addc	@r1+,	r2	
 718:	38 4e       	mov	@r14+,	r8	
 71a:	33 2f       	jc	$-408    	;abs 0x582
 71c:	67 63       	addc.b	#2,	r7	;r3 As==10
 71e:	63 2d       	jc	$+712    	;abs 0x9e6
 720:	6d 73       	subc.b	#2,	r13	;r3 As==10
 722:	70 34       	jge	$+226    	;abs 0x804
 724:	33 30       	jn	$+104    	;abs 0x78c
 726:	2d 34       	jge	$+92     	;abs 0x782
 728:	2e 36       	jge	$-930    	;abs 0x386
 72a:	2e 33       	jn	$-418    	;abs 0x588
 72c:	7e 6d       	addc.b	@r13+,	r14	
 72e:	73 70       	.word	0x7073;	????	Illegal as 2-op instr
 730:	67 63       	addc.b	#2,	r7	;r3 As==10
 732:	63 2d       	jc	$+712    	;abs 0x9fa
 734:	32 30       	jn	$+102    	;abs 0x79a
 736:	31 32       	jn	$-924    	;abs 0x39a
 738:	30 34       	jge	$+98     	;abs 0x79a
 73a:	30 36       	jge	$-926    	;abs 0x39c
 73c:	2f 2e       	jc	$-928    	;abs 0x39c
 73e:	2f 67       	addc	@r7,	r15	
 740:	63 63       	.word	0x6363;	????	Illegal as 2-op instr
 742:	2d 34       	jge	$+92     	;abs 0x79e
 744:	2e 36       	jge	$-930    	;abs 0x3a2
 746:	2e 33       	jn	$-418    	;abs 0x5a4
 748:	2f 67       	addc	@r7,	r15	
 74a:	63 63       	.word	0x6363;	????	Illegal as 2-op instr
 74c:	2f 63       	addc	#2,	r15	;r3 As==10
 74e:	6f 6e       	addc.b	@r14,	r15	
 750:	66 69       	addc.b	@r9,	r6	
 752:	67 2f       	jc	$-304    	;abs 0x622
 754:	6d 73       	subc.b	#2,	r13	;r3 As==10
 756:	70 34       	jge	$+226    	;abs 0x838
 758:	33 30       	jn	$+104    	;abs 0x7c0
 75a:	00 00       	.word	0x0000;	????	
 75c:	63 72       	.word	0x7263;	????	Illegal as 2-op instr
 75e:	74 30       	jn	$+234    	;abs 0x848
 760:	2e 53       	incd	r14		
 762:	00 01       	.word	0x0100;	????	
 764:	00 00       	.word	0x0000;	????	
 766:	00 00       	.word	0x0000;	????	
 768:	03 02       	.word	0x0203;	????	
 76a:	10 c0 03 bc 	bic	-17405(r0),r0	;PC rel. 0xc36f
 76e:	01 01       	.word	0x0101;	????	
 770:	4b 2f       	jc	$-360    	;abs 0x608
 772:	30 67       	addc	@r7+,	r0	
 774:	2f 67       	addc	@r7,	r15	
 776:	02 02       	.word	0x0202;	????	
 778:	00 01       	.word	0x0100;	????	
 77a:	01 8f       	sub	r15,	r1	
 77c:	00 00       	.word	0x0000;	????	
 77e:	00 02       	.word	0x0200;	????	
 780:	00 75       	subc	r5,	r0	
 782:	00 00       	.word	0x0000;	????	
 784:	00 01       	.word	0x0100;	????	
 786:	01 fb       	and	r11,	r1	
 788:	0e 0d       	.word	0x0d0e;	????	
 78a:	00 01       	.word	0x0100;	????	
 78c:	01 01       	.word	0x0101;	????	
 78e:	01 00       	.word	0x0001;	????	
 790:	00 00       	.word	0x0000;	????	
 792:	01 00       	.word	0x0001;	????	
 794:	00 01       	.word	0x0100;	????	
 796:	2f 62       	addc	#4,	r15	;r2 As==10
 798:	75 69       	addc.b	@r9+,	r5	
 79a:	6c 64       	addc.b	@r4,	r12	
 79c:	2f 67       	addc	@r7,	r15	
 79e:	63 63       	.word	0x6363;	????	Illegal as 2-op instr
 7a0:	2d 6d       	addc	@r13,	r13	
 7a2:	73 70       	.word	0x7073;	????	Illegal as 2-op instr
 7a4:	34 33       	jn	$-406    	;abs 0x60e
 7a6:	30 2d       	jc	$+610    	;abs 0xa08
 7a8:	52 32       	jn	$-858    	;abs 0x44e
 7aa:	61 38       	jl	$+196    	;abs 0x86e
 7ac:	4e 33       	jn	$-354    	;abs 0x64a
 7ae:	2f 67       	addc	@r7,	r15	
 7b0:	63 63       	.word	0x6363;	????	Illegal as 2-op instr
 7b2:	2d 6d       	addc	@r13,	r13	
 7b4:	73 70       	.word	0x7073;	????	Illegal as 2-op instr
 7b6:	34 33       	jn	$-406    	;abs 0x620
 7b8:	30 2d       	jc	$+610    	;abs 0xa1a
 7ba:	34 2e       	jc	$-918    	;abs 0x424
 7bc:	36 2e       	jc	$-914    	;abs 0x42a
 7be:	33 7e       	.word	0x7e33;	????	Illegal as 2-op instr
 7c0:	6d 73       	subc.b	#2,	r13	;r3 As==10
 7c2:	70 67       	addc.b	@r7+,	r0	
 7c4:	63 63       	.word	0x6363;	????	Illegal as 2-op instr
 7c6:	2d 32       	jn	$-932    	;abs 0x422
 7c8:	30 31       	jn	$+610    	;abs 0xa2a
 7ca:	32 30       	jn	$+102    	;abs 0x830
 7cc:	34 30       	jn	$+106    	;abs 0x836
 7ce:	36 2f       	jc	$-402    	;abs 0x63c
 7d0:	2e 2f       	jc	$-418    	;abs 0x62e
 7d2:	67 63       	addc.b	#2,	r7	;r3 As==10
 7d4:	63 2d       	jc	$+712    	;abs 0xa9c
 7d6:	34 2e       	jc	$-918    	;abs 0x440
 7d8:	36 2e       	jc	$-914    	;abs 0x446
 7da:	33 2f       	jc	$-408    	;abs 0x642
 7dc:	67 63       	addc.b	#2,	r7	;r3 As==10
 7de:	63 2f       	jc	$-312    	;abs 0x6a6
 7e0:	63 6f       	.word	0x6f63;	????	Illegal as 2-op instr
 7e2:	6e 66       	addc.b	@r6,	r14	
 7e4:	69 67       	addc.b	@r7,	r9	
 7e6:	2f 6d       	addc	@r13,	r15	
 7e8:	73 70       	.word	0x7073;	????	Illegal as 2-op instr
 7ea:	34 33       	jn	$-406    	;abs 0x654
 7ec:	30 00       	.word	0x0030;	????	
 7ee:	00 63       	adc	r0		
 7f0:	72 74       	subc.b	@r4+,	r2	
 7f2:	30 2e       	jc	$-926    	;abs 0x454
 7f4:	53 00       	.word	0x0053;	????	
 7f6:	01 00       	.word	0x0001;	????	
 7f8:	00 00       	.word	0x0000;	????	
 7fa:	00 03       	.word	0x0300;	????	
 7fc:	02 28       	jnc	$+6      	;abs 0x802
 7fe:	c0 03       	.word	0x03c0;	????	
 800:	d6 01       	.word	0x01d6;	????	
 802:	01 4b       	mov	r11,	r1	
 804:	2f 30       	jn	$+96     	;abs 0x864
 806:	67 2f       	jc	$-304    	;abs 0x6d6
 808:	4b 02       	.word	0x024b;	????	
 80a:	02 00       	.word	0x0002;	????	
 80c:	01 01       	.word	0x0101;	????	
 80e:	8a 00       	.word	0x008a;	????	
 810:	00 00       	.word	0x0000;	????	
 812:	02 00       	.word	0x0002;	????	
 814:	75 00       	.word	0x0075;	????	
 816:	00 00       	.word	0x0000;	????	
 818:	01 01       	.word	0x0101;	????	
 81a:	fb 0e       	.word	0x0efb;	????	
 81c:	0d 00       	.word	0x000d;	????	
 81e:	01 01       	.word	0x0101;	????	
 820:	01 01       	.word	0x0101;	????	
 822:	00 00       	.word	0x0000;	????	
 824:	00 01       	.word	0x0100;	????	
 826:	00 00       	.word	0x0000;	????	
 828:	01 2f       	jc	$-508    	;abs 0x62c
 82a:	62 75       	subc.b	@r5,	r2	
 82c:	69 6c       	addc.b	@r12,	r9	
 82e:	64 2f       	jc	$-310    	;abs 0x6f8
 830:	67 63       	addc.b	#2,	r7	;r3 As==10
 832:	63 2d       	jc	$+712    	;abs 0xafa
 834:	6d 73       	subc.b	#2,	r13	;r3 As==10
 836:	70 34       	jge	$+226    	;abs 0x918
 838:	33 30       	jn	$+104    	;abs 0x8a0
 83a:	2d 52       	add	#4,	r13	;r2 As==10
 83c:	32 61       	addc	@r1+,	r2	
 83e:	38 4e       	mov	@r14+,	r8	
 840:	33 2f       	jc	$-408    	;abs 0x6a8
 842:	67 63       	addc.b	#2,	r7	;r3 As==10
 844:	63 2d       	jc	$+712    	;abs 0xb0c
 846:	6d 73       	subc.b	#2,	r13	;r3 As==10
 848:	70 34       	jge	$+226    	;abs 0x92a
 84a:	33 30       	jn	$+104    	;abs 0x8b2
 84c:	2d 34       	jge	$+92     	;abs 0x8a8
 84e:	2e 36       	jge	$-930    	;abs 0x4ac
 850:	2e 33       	jn	$-418    	;abs 0x6ae
 852:	7e 6d       	addc.b	@r13+,	r14	
 854:	73 70       	.word	0x7073;	????	Illegal as 2-op instr
 856:	67 63       	addc.b	#2,	r7	;r3 As==10
 858:	63 2d       	jc	$+712    	;abs 0xb20
 85a:	32 30       	jn	$+102    	;abs 0x8c0
 85c:	31 32       	jn	$-924    	;abs 0x4c0
 85e:	30 34       	jge	$+98     	;abs 0x8c0
 860:	30 36       	jge	$-926    	;abs 0x4c2
 862:	2f 2e       	jc	$-928    	;abs 0x4c2
 864:	2f 67       	addc	@r7,	r15	
 866:	63 63       	.word	0x6363;	????	Illegal as 2-op instr
 868:	2d 34       	jge	$+92     	;abs 0x8c4
 86a:	2e 36       	jge	$-930    	;abs 0x4c8
 86c:	2e 33       	jn	$-418    	;abs 0x6ca
 86e:	2f 67       	addc	@r7,	r15	
 870:	63 63       	.word	0x6363;	????	Illegal as 2-op instr
 872:	2f 63       	addc	#2,	r15	;r3 As==10
 874:	6f 6e       	addc.b	@r14,	r15	
 876:	66 69       	addc.b	@r9,	r6	
 878:	67 2f       	jc	$-304    	;abs 0x748
 87a:	6d 73       	subc.b	#2,	r13	;r3 As==10
 87c:	70 34       	jge	$+226    	;abs 0x95e
 87e:	33 30       	jn	$+104    	;abs 0x8e6
 880:	00 00       	.word	0x0000;	????	
 882:	63 72       	.word	0x7263;	????	Illegal as 2-op instr
 884:	74 30       	jn	$+234    	;abs 0x96e
 886:	2e 53       	incd	r14		
 888:	00 01       	.word	0x0100;	????	
 88a:	00 00       	.word	0x0000;	????	
 88c:	00 00       	.word	0x0000;	????	
 88e:	03 02       	.word	0x0203;	????	
 890:	e8 c0 03 fe 	bic.b	@r0,	-509(r8);0xfe03(r8)
 894:	01 01       	.word	0x0101;	????	
 896:	4b 02       	.word	0x024b;	????	
 898:	02 00       	.word	0x0002;	????	
 89a:	01 01       	.word	0x0101;	????	
 89c:	89 00       	.word	0x0089;	????	
 89e:	00 00       	.word	0x0000;	????	
 8a0:	02 00       	.word	0x0002;	????	
 8a2:	75 00       	.word	0x0075;	????	
 8a4:	00 00       	.word	0x0000;	????	
 8a6:	01 01       	.word	0x0101;	????	
 8a8:	fb 0e       	.word	0x0efb;	????	
 8aa:	0d 00       	.word	0x000d;	????	
 8ac:	01 01       	.word	0x0101;	????	
 8ae:	01 01       	.word	0x0101;	????	
 8b0:	00 00       	.word	0x0000;	????	
 8b2:	00 01       	.word	0x0100;	????	
 8b4:	00 00       	.word	0x0000;	????	
 8b6:	01 2f       	jc	$-508    	;abs 0x6ba
 8b8:	62 75       	subc.b	@r5,	r2	
 8ba:	69 6c       	addc.b	@r12,	r9	
 8bc:	64 2f       	jc	$-310    	;abs 0x786
 8be:	67 63       	addc.b	#2,	r7	;r3 As==10
 8c0:	63 2d       	jc	$+712    	;abs 0xb88
 8c2:	6d 73       	subc.b	#2,	r13	;r3 As==10
 8c4:	70 34       	jge	$+226    	;abs 0x9a6
 8c6:	33 30       	jn	$+104    	;abs 0x92e
 8c8:	2d 52       	add	#4,	r13	;r2 As==10
 8ca:	32 61       	addc	@r1+,	r2	
 8cc:	38 4e       	mov	@r14+,	r8	
 8ce:	33 2f       	jc	$-408    	;abs 0x736
 8d0:	67 63       	addc.b	#2,	r7	;r3 As==10
 8d2:	63 2d       	jc	$+712    	;abs 0xb9a
 8d4:	6d 73       	subc.b	#2,	r13	;r3 As==10
 8d6:	70 34       	jge	$+226    	;abs 0x9b8
 8d8:	33 30       	jn	$+104    	;abs 0x940
 8da:	2d 34       	jge	$+92     	;abs 0x936
 8dc:	2e 36       	jge	$-930    	;abs 0x53a
 8de:	2e 33       	jn	$-418    	;abs 0x73c
 8e0:	7e 6d       	addc.b	@r13+,	r14	
 8e2:	73 70       	.word	0x7073;	????	Illegal as 2-op instr
 8e4:	67 63       	addc.b	#2,	r7	;r3 As==10
 8e6:	63 2d       	jc	$+712    	;abs 0xbae
 8e8:	32 30       	jn	$+102    	;abs 0x94e
 8ea:	31 32       	jn	$-924    	;abs 0x54e
 8ec:	30 34       	jge	$+98     	;abs 0x94e
 8ee:	30 36       	jge	$-926    	;abs 0x550
 8f0:	2f 2e       	jc	$-928    	;abs 0x550
 8f2:	2f 67       	addc	@r7,	r15	
 8f4:	63 63       	.word	0x6363;	????	Illegal as 2-op instr
 8f6:	2d 34       	jge	$+92     	;abs 0x952
 8f8:	2e 36       	jge	$-930    	;abs 0x556
 8fa:	2e 33       	jn	$-418    	;abs 0x758
 8fc:	2f 67       	addc	@r7,	r15	
 8fe:	63 63       	.word	0x6363;	????	Illegal as 2-op instr
 900:	2f 63       	addc	#2,	r15	;r3 As==10
 902:	6f 6e       	addc.b	@r14,	r15	
 904:	66 69       	addc.b	@r9,	r6	
 906:	67 2f       	jc	$-304    	;abs 0x7d6
 908:	6d 73       	subc.b	#2,	r13	;r3 As==10
 90a:	70 34       	jge	$+226    	;abs 0x9ec
 90c:	33 30       	jn	$+104    	;abs 0x974
 90e:	00 00       	.word	0x0000;	????	
 910:	63 72       	.word	0x7263;	????	Illegal as 2-op instr
 912:	74 30       	jn	$+234    	;abs 0x9fc
 914:	2e 53       	incd	r14		
 916:	00 01       	.word	0x0100;	????	
 918:	00 00       	.word	0x0000;	????	
 91a:	00 00       	.word	0x0000;	????	
 91c:	03 02       	.word	0x0203;	????	
 91e:	30 cb       	bic	@r11+,	r0	
 920:	03 cd       	.word	0xcd03;	????	Illegal as 2-op instr
 922:	02 01       	.word	0x0102;	????	
 924:	02 02       	.word	0x0202;	????	
 926:	00 01       	.word	0x0100;	????	
 928:	01 00       	Address 0x0000000000000928 is out of bounds.
Address 0x000000000000092a is out of bounds.
and.b	@r15+,	-1(r15)	;0xffff(r15)

Disassembly of section .debug_frame:

00000000 <.debug_frame>:
   0:	0e 00       	.word	0x000e;	????	
   2:	00 00       	.word	0x0000;	????	
   4:	ff ff ff ff 	and.b	@r15+,	-1(r15)	;0xffff(r15)
   8:	01 00       	.word	0x0001;	????	
   a:	01 7e       	subc	r14,	r1	
   c:	00 0c       	.word	0x0c00;	????	
   e:	01 02       	.word	0x0201;	????	
  10:	80 01       	.word	0x0180;	????	
  12:	4a 00       	.word	0x004a;	????	
  14:	00 00       	.word	0x0000;	????	
  16:	00 00       	.word	0x0000;	????	
  18:	00 00       	.word	0x0000;	????	
  1a:	f2 c0 00 02 	bic.b	#512,	&0x0e44	;#0x0200
  1e:	44 0e 
  20:	1a 4e 0e 1c 	mov	7182(r14),r10	;0x1c0e(r14)
  24:	44 0e       	.word	0x0e44;	????	
  26:	1e 40 2e 04 	mov	1070(r0),r14	;PC rel. 0x0456
  2a:	46 0e       	.word	0x0e46;	????	
  2c:	1a 52 0e 1c 	add	&0x1c0e,r10	
  30:	44 0e       	.word	0x0e44;	????	
  32:	1e 46 0e 1a 	mov	6670(r6),r14	;0x1a0e(r6)
  36:	4e 0e       	.word	0x0e4e;	????	
  38:	1c 40 2e 02 	mov	558(r0),r12	;PC rel. 0x0268
  3c:	46 0e       	.word	0x0e46;	????	
  3e:	1a 03       	.word	0x031a;	????	
  40:	04 01       	.word	0x0104;	????	
  42:	0e 1c       	.word	0x1c0e;	????	
  44:	42 0e       	.word	0x0e42;	????	
  46:	1e 44 0e 20 	mov	8206(r4),r14	;0x200e(r4)
  4a:	40 2e       	jc	$-894    	;abs 0xfccc
  4c:	06 48       	mov	r8,	r6	
  4e:	0e 1a       	.word	0x1a0e;	????	
  50:	56 0e       	.word	0x0e56;	????	
  52:	1c 40 2e 02 	mov	558(r0),r12	;PC rel. 0x0282
  56:	46 0e       	.word	0x0e46;	????	
  58:	1a 02       	.word	0x021a;	????	
  5a:	44 0e       	.word	0x0e44;	????	
  5c:	1c 46 0e 1a 	mov	6670(r6),r12	;0x1a0e(r6)
  60:	16 00       	.word	0x0016;	????	
  62:	00 00       	.word	0x0000;	????	
  64:	00 00       	.word	0x0000;	????	
  66:	00 00       	.word	0x0000;	????	
  68:	3e c0 aa 00 	bic	#170,	r14	;#0x00aa
  6c:	02 9a       	cmp	r10,	r2	
  6e:	0e 04       	.word	0x040e;	????	
  70:	44 0e       	.word	0x0e44;	????	
  72:	06 40       	mov	r0,	r6	
  74:	2e 04       	.word	0x042e;	????	
  76:	46 0e       	.word	0x0e46;	????	
  78:	02 00       	.word	0x0002;	????	
  7a:	1c 00       	.word	0x001c;	????	
  7c:	00 00       	.word	0x0000;	????	
  7e:	00 00       	.word	0x0000;	????	
  80:	00 00       	.word	0x0000;	????	
  82:	f2 c2 66 00 	bic.b	#8,	&0x0066	;r2 As==11
  86:	42 0e       	.word	0x0e42;	????	
  88:	04 8f       	sub	r15,	r4	
  8a:	02 42       	mov	r2,	r2	
  8c:	0e 06       	.word	0x060e;	????	
  8e:	8e 03       	.word	0x038e;	????	
  90:	42 0e       	.word	0x0e42;	????	
  92:	08 8d       	sub	r13,	r8	
  94:	04 42       	mov	r2,	r4	
  96:	0e 0a       	.word	0x0a0e;	????	
  98:	8c 05       	.word	0x058c;	????	
  9a:	12 00       	.word	0x0012;	????	
  9c:	00 00       	.word	0x0000;	????	
  9e:	00 00       	.word	0x0000;	????	
  a0:	00 00       	.word	0x0000;	????	
  a2:	58 c3       	bic.b	#1,	r8	;r3 As==01
  a4:	1c 02       	.word	0x021c;	????	
  a6:	42 0e       	.word	0x0e42;	????	
  a8:	04 8f       	sub	r15,	r4	
  aa:	02 42       	mov	r2,	r2	
  ac:	0e 06       	.word	0x060e;	????	
  ae:	8e 03       	.word	0x038e;	????	
  b0:	08 00       	.word	0x0008;	????	
  b2:	00 00       	.word	0x0000;	????	
  b4:	00 00       	.word	0x0000;	????	
  b6:	00 00       	.word	0x0000;	????	
  b8:	74 c5       	bic.b	@r5+,	r4	
  ba:	02 00       	.word	0x0002;	????	
  bc:	0e 00       	.word	0x000e;	????	
  be:	00 00       	.word	0x0000;	????	
  c0:	ff ff ff ff 	and.b	@r15+,	-1(r15)	;0xffff(r15)
  c4:	01 00       	.word	0x0001;	????	
  c6:	01 7e       	subc	r14,	r1	
  c8:	00 0c       	.word	0x0c00;	????	
  ca:	01 02       	.word	0x0201;	????	
  cc:	80 01       	.word	0x0180;	????	
  ce:	0c 00       	.word	0x000c;	????	
  d0:	00 00       	.word	0x0000;	????	
  d2:	bc 00       	.word	0x00bc;	????	
  d4:	00 00       	.word	0x0000;	????	
  d6:	76 c5       	bic.b	@r5+,	r6	
  d8:	9e 00       	.word	0x009e;	????	
  da:	42 0e       	.word	0x0e42;	????	
  dc:	06 00       	.word	0x0006;	????	
  de:	0e 00       	.word	0x000e;	????	
  e0:	00 00       	.word	0x0000;	????	
  e2:	ff ff ff ff 	and.b	@r15+,	-1(r15)	;0xffff(r15)
  e6:	01 00       	.word	0x0001;	????	
  e8:	01 7e       	subc	r14,	r1	
  ea:	00 0c       	.word	0x0c00;	????	
  ec:	01 02       	.word	0x0201;	????	
  ee:	80 01       	.word	0x0180;	????	
  f0:	0c 00       	.word	0x000c;	????	
  f2:	00 00       	.word	0x0000;	????	
  f4:	de 00       	.word	0x00de;	????	
  f6:	00 00       	.word	0x0000;	????	
  f8:	14 c6 e8 00 	bic	232(r6),r4	;0x00e8(r6)
  fc:	44 0e       	.word	0x0e44;	????	
  fe:	08 00       	.word	0x0008;	????	
 100:	0e 00       	.word	0x000e;	????	
 102:	00 00       	.word	0x0000;	????	
 104:	ff ff ff ff 	and.b	@r15+,	-1(r15)	;0xffff(r15)
 108:	01 00       	.word	0x0001;	????	
 10a:	01 7e       	subc	r14,	r1	
 10c:	00 0c       	.word	0x0c00;	????	
 10e:	01 02       	.word	0x0201;	????	
 110:	80 01       	.word	0x0180;	????	
 112:	22 00       	.word	0x0022;	????	
 114:	00 00       	.word	0x0000;	????	
 116:	00 01       	.word	0x0100;	????	
 118:	00 00       	.word	0x0000;	????	
 11a:	fc c6 6a 00 	bic.b	@r6+,	106(r12);0x006a(r12)
 11e:	42 0e       	.word	0x0e42;	????	
 120:	04 8b       	sub	r11,	r4	
 122:	02 42       	mov	r2,	r2	
 124:	0e 06       	.word	0x060e;	????	
 126:	8a 03       	.word	0x038a;	????	
 128:	42 0e       	.word	0x0e42;	????	
 12a:	08 89       	sub	r9,	r8	
 12c:	04 42       	mov	r2,	r4	
 12e:	0e 0a       	.word	0x0a0e;	????	
 130:	88 05       	.word	0x0588;	????	
 132:	42 0e       	.word	0x0e42;	????	
 134:	0c 87       	sub	r7,	r12	
 136:	06 00       	.word	0x0006;	????	
 138:	08 00       	.word	0x0008;	????	
 13a:	00 00       	.word	0x0000;	????	
 13c:	00 01       	.word	0x0100;	????	
 13e:	00 00       	.word	0x0000;	????	
 140:	66 c7       	bic.b	@r7,	r6	
 142:	0e 00       	.word	0x000e;	????	
 144:	0e 00       	.word	0x000e;	????	
 146:	00 00       	.word	0x0000;	????	
 148:	00 01       	.word	0x0100;	????	
 14a:	00 00       	.word	0x0000;	????	
 14c:	74 c7       	bic.b	@r7+,	r4	
 14e:	14 00       	.word	0x0014;	????	
 150:	42 0e       	.word	0x0e42;	????	
 152:	04 8b       	sub	r11,	r4	
 154:	02 00       	.word	0x0002;	????	
 156:	1a 00       	.word	0x001a;	????	
 158:	00 00       	.word	0x0000;	????	
 15a:	00 01       	.word	0x0100;	????	
 15c:	00 00       	.word	0x0000;	????	
 15e:	88 c7 7a 00 	bic	r7,	122(r8)	;0x007a(r8)
 162:	42 0e       	.word	0x0e42;	????	
 164:	04 8b       	sub	r11,	r4	
 166:	02 42       	mov	r2,	r2	
 168:	0e 06       	.word	0x060e;	????	
 16a:	8a 03       	.word	0x038a;	????	
 16c:	42 0e       	.word	0x0e42;	????	
 16e:	08 89       	sub	r9,	r8	
 170:	04 44       	mov	r4,	r4	
 172:	0e 28       	jnc	$+30     	;abs 0x190
 174:	12 00       	.word	0x0012;	????	
 176:	00 00       	.word	0x0000;	????	
 178:	00 01       	.word	0x0100;	????	
 17a:	00 00       	.word	0x0000;	????	
 17c:	02 c8       	bic	r8,	r2	
 17e:	3a 00       	.word	0x003a;	????	
 180:	42 0e       	.word	0x0e42;	????	
 182:	04 8b       	sub	r11,	r4	
 184:	02 42       	mov	r2,	r2	
 186:	0e 06       	.word	0x060e;	????	
 188:	8a 03       	.word	0x038a;	????	
 18a:	1c 00       	.word	0x001c;	????	
 18c:	00 00       	.word	0x0000;	????	
 18e:	00 01       	.word	0x0100;	????	
 190:	00 00       	.word	0x0000;	????	
 192:	3c c8       	bic	@r8+,	r12	
 194:	2a 01       	.word	0x012a;	????	
 196:	42 0e       	.word	0x0e42;	????	
 198:	04 8b       	sub	r11,	r4	
 19a:	02 42       	mov	r2,	r2	
 19c:	0e 06       	.word	0x060e;	????	
 19e:	8a 03       	.word	0x038a;	????	
 1a0:	42 0e       	.word	0x0e42;	????	
 1a2:	08 89       	sub	r9,	r8	
 1a4:	04 42       	mov	r2,	r4	
 1a6:	0e 0a       	.word	0x0a0e;	????	
 1a8:	88 05       	.word	0x0588;	????	
 1aa:	0e 00       	.word	0x000e;	????	
 1ac:	00 00       	.word	0x0000;	????	
 1ae:	ff ff ff ff 	and.b	@r15+,	-1(r15)	;0xffff(r15)
 1b2:	01 00       	.word	0x0001;	????	
 1b4:	01 7e       	subc	r14,	r1	
 1b6:	00 0c       	.word	0x0c00;	????	
 1b8:	01 02       	.word	0x0201;	????	
 1ba:	80 01       	.word	0x0180;	????	
 1bc:	08 00       	.word	0x0008;	????	
 1be:	00 00       	.word	0x0000;	????	
 1c0:	aa 01       	.word	0x01aa;	????	
 1c2:	00 00       	.word	0x0000;	????	
 1c4:	66 c9       	bic.b	@r9,	r6	
 1c6:	06 00       	.word	0x0006;	????	
 1c8:	08 00       	.word	0x0008;	????	
 1ca:	00 00       	.word	0x0000;	????	
 1cc:	aa 01       	.word	0x01aa;	????	
 1ce:	00 00       	.word	0x0000;	????	
 1d0:	6c c9       	bic.b	@r9,	r12	
 1d2:	06 00       	.word	0x0006;	????	
 1d4:	0e 00       	.word	0x000e;	????	
 1d6:	00 00       	.word	0x0000;	????	
 1d8:	ff ff ff ff 	and.b	@r15+,	-1(r15)	;0xffff(r15)
 1dc:	01 00       	.word	0x0001;	????	
 1de:	01 7e       	subc	r14,	r1	
 1e0:	00 0c       	.word	0x0c00;	????	
 1e2:	01 02       	.word	0x0201;	????	
 1e4:	80 01       	.word	0x0180;	????	
 1e6:	08 00       	.word	0x0008;	????	
 1e8:	00 00       	.word	0x0000;	????	
 1ea:	d4 01       	.word	0x01d4;	????	
 1ec:	00 00       	.word	0x0000;	????	
 1ee:	72 c9       	bic.b	@r9+,	r2	
 1f0:	2a 01       	.word	0x012a;	????	
 1f2:	08 00       	.word	0x0008;	????	
 1f4:	00 00       	.word	0x0000;	????	
 1f6:	d4 01       	.word	0x01d4;	????	
 1f8:	00 00       	.word	0x0000;	????	
 1fa:	9c ca 10 00 	bic	16(r10),8(r12)	;0x0010(r10), 0x0008(r12)
 1fe:	08 00 
 200:	00 00       	.word	0x0000;	????	
 202:	d4 01       	.word	0x01d4;	????	
 204:	00 00       	.word	0x0000;	????	
 206:	ac ca 06 00 	bic	@r10,	6(r12)	;0x0006(r12)
 20a:	08 00       	.word	0x0008;	????	
 20c:	00 00       	.word	0x0000;	????	
 20e:	d4 01       	.word	0x01d4;	????	
 210:	00 00       	.word	0x0000;	????	
 212:	b2 ca 0e 00 	bic	@r10+,	&0x000e	
 216:	08 00       	.word	0x0008;	????	
 218:	00 00       	.word	0x0000;	????	
 21a:	d4 01       	.word	0x01d4;	????	
 21c:	00 00       	.word	0x0000;	????	
 21e:	c0 ca 06 00 	bic.b	r10,	6(r0)	;PC rel. 0x0226
 222:	08 00       	.word	0x0008;	????	
 224:	00 00       	.word	0x0000;	????	
 226:	d4 01       	.word	0x01d4;	????	
 228:	00 00       	.word	0x0000;	????	
 22a:	c6 ca 0e 00 	bic.b	r10,	14(r6)	;0x000e(r6)

Disassembly of section .debug_str:

00000000 <.debug_str>:
   0:	63 6f       	.word	0x6f63;	????	Illegal as 2-op instr
   2:	64 65       	addc.b	@r5,	r4	
   4:	53 65       	.word	0x6553;	????	Illegal as 2-op instr
   6:	74 00       	.word	0x0074;	????	
   8:	62 75       	subc.b	@r5,	r2	
   a:	74 74       	subc.b	@r4+,	r4	
   c:	6f 6e       	addc.b	@r14,	r15	
   e:	5f 69 73 72 	addc.b	29299(r9),r15	;0x7273(r9)
  12:	00 5f       	add	r15,	r0	
  14:	5f 50 31 4f 	add.b	20273(r0),r15	;PC rel. 0x4f47
  18:	55 54 00 70 	add.b	28672(r4),r5	;0x7000(r4)
  1c:	6f 74       	subc.b	@r4,	r15	
  1e:	5f 76 61 6c 	subc.b	27745(r6),r15	;0x6c61(r6)
  22:	75 65       	addc.b	@r5+,	r5	
  24:	00 5f       	add	r15,	r0	
  26:	5f 50 31 44 	add.b	17457(r0),r15	;PC rel. 0x4459
  2a:	49 52       	add.b	r2,	r9	
  2c:	00 6e       	addc	r14,	r0	
  2e:	75 6d       	addc.b	@r13+,	r5	
  30:	62 65       	addc.b	@r5,	r2	
  32:	72 5f       	add.b	@r15+,	r2	
  34:	69 6e       	addc.b	@r14,	r9	
  36:	64 65       	addc.b	@r5,	r4	
  38:	78 00       	.word	0x0078;	????	
  3a:	6d 61       	addc.b	@r1,	r13	
  3c:	69 6e       	addc.b	@r14,	r9	
  3e:	00 5f       	add	r15,	r0	
  40:	5f 54 41 30 	add.b	12353(r4),r15	;0x3041(r4)
  44:	43 43       	clr.b	#0		;r3 As==00
  46:	54 4c 30 00 	mov.b	48(r12),r4	;0x0030(r12)
  4a:	61 6e       	addc.b	@r14,	r1	
  4c:	73 77       	.word	0x7773;	????	Illegal as 2-op instr
  4e:	65 72       	subc.b	#4,	r5	;r2 As==10
  50:	5f 61 72 72 	addc.b	29298(r1),r15	;0x7272(r1)
  54:	61 79       	subc.b	@r9,	r1	
  56:	00 64       	addc	r4,	r0	
  58:	69 61       	addc.b	@r1,	r9	
  5a:	6c 49       	mov.b	@r9,	r12	
  5c:	6e 5f       	add.b	@r15,	r14	
  5e:	69 6e       	addc.b	@r14,	r9	
  60:	64 65       	addc.b	@r5,	r4	
  62:	78 00       	.word	0x0078;	????	
  64:	77 68       	addc.b	@r8+,	r7	
  66:	69 74       	subc.b	@r4,	r9	
  68:	65 50       	add.b	@r0,	r5	
  6a:	65 67       	addc.b	@r7,	r5	
  6c:	00 77       	subc	r7,	r0	
  6e:	69 6e       	addc.b	@r14,	r9	
  70:	52 65 73 65 	addc.b	25971(r5),r2	;0x6573(r5)
  74:	74 00       	.word	0x0074;	????	
  76:	5f 5f 50 32 	add.b	12880(r15),r15	;0x3250(r15)
  7a:	4f 55       	add.b	r5,	r15	
  7c:	54 00       	.word	0x0054;	????	
  7e:	6c 6f       	addc.b	@r15,	r12	
  80:	6e 67       	addc.b	@r7,	r14	
  82:	20 6c       	addc	@r12,	r0	
  84:	6f 6e       	addc.b	@r14,	r15	
  86:	67 20       	jnz	$+208    	;abs 0x156
  88:	69 6e       	addc.b	@r14,	r9	
  8a:	74 00       	.word	0x0074;	????	
  8c:	61 35       	jge	$+708    	;abs 0x350
  8e:	2e 63       	addc	#2,	r14	;r3 As==10
  90:	00 5f       	add	r15,	r0	
  92:	5f 44 43 4f 	mov.b	20291(r4),r15	;0x4f43(r4)
  96:	43 54       	.word	0x5443;	????	Illegal as 2-op instr
  98:	4c 00       	.word	0x004c;	????	
  9a:	5f 5f 57 44 	add.b	17495(r15),r15	;0x4457(r15)
  9e:	54 43       	mov.b	#1,	r4	;r3 As==01
  a0:	54 4c 00 47 	mov.b	18176(r12),r4	;0x4700(r12)
  a4:	4e 55       	add.b	r5,	r14	
  a6:	20 43       	br	#2		;r3 As==10
  a8:	20 34       	jge	$+66     	;abs 0xea
  aa:	2e 36       	jge	$-930    	;abs 0xfd08
  ac:	2e 33       	jn	$-418    	;abs 0xff0a
  ae:	20 32       	jn	$-958    	;abs 0xfcf0
  b0:	30 31       	jn	$+610    	;abs 0x312
  b2:	32 30       	jn	$+102    	;abs 0x118
  b4:	33 30       	jn	$+104    	;abs 0x11c
  b6:	31 20       	jnz	$+100    	;abs 0x11a
  b8:	28 6d       	addc	@r13,	r8	
  ba:	73 70       	.word	0x7073;	????	Illegal as 2-op instr
  bc:	67 63       	addc.b	#2,	r7	;r3 As==10
  be:	63 20       	jnz	$+200    	;abs 0x186
  c0:	4c 54       	add.b	r4,	r12	
  c2:	53 20       	jnz	$+168    	;abs 0x16a
  c4:	32 30       	jn	$+102    	;abs 0x12a
  c6:	31 32       	jn	$-924    	;abs 0xfd2a
  c8:	30 34       	jge	$+98     	;abs 0x12a
  ca:	30 36       	jge	$-926    	;abs 0xfd2c
  cc:	20 75       	subc	@r5,	r0	
  ce:	6e 70       	subc.b	@r0,	r14	
  d0:	61 74       	subc.b	@r4,	r1	
  d2:	63 68       	.word	0x6863;	????	Illegal as 2-op instr
  d4:	65 64       	addc.b	@r4,	r5	
  d6:	29 00       	.word	0x0029;	????	
  d8:	5f 5f 50 32 	add.b	12880(r15),r15	;0x3250(r15)
  dc:	44 49       	mov.b	r9,	r4	
  de:	52 00       	.word	0x0052;	????	
  e0:	2f 68       	addc	@r8,	r15	
  e2:	6f 6d       	addc.b	@r13,	r15	
  e4:	65 2f       	jc	$-308    	;abs 0xffb0
  e6:	6a 69       	addc.b	@r9,	r10	
  e8:	61 79       	subc.b	@r9,	r1	
  ea:	75 63       	addc.b	#-1,	r5	;r3 As==11
  ec:	68 61       	addc.b	@r1,	r8	
  ee:	6e 2f       	jc	$-290    	;abs 0xffcc
  f0:	44 65       	addc.b	r5,	r4	
  f2:	73 6b       	.word	0x6b73;	????	Illegal as 2-op instr
  f4:	74 6f       	addc.b	@r15+,	r4	
  f6:	70 2f       	jc	$-286    	;abs 0xffd8
  f8:	61 35       	jge	$+708    	;abs 0x3bc
  fa:	2d 6a       	addc	@r10,	r13	
  fc:	69 61       	addc.b	@r1,	r9	
  fe:	79 75       	subc.b	@r5+,	r9	
 100:	63 68       	.word	0x6863;	????	Illegal as 2-op instr
 102:	61 6e       	addc.b	@r14,	r1	
 104:	39 31       	jn	$+628    	;abs 0x378
 106:	00 63       	adc	r0		
 108:	68 61       	addc.b	@r1,	r8	
 10a:	6e 67       	addc.b	@r7,	r14	
 10c:	65 44       	mov.b	@r4,	r5	
 10e:	69 67       	addc.b	@r7,	r9	
 110:	69 74       	subc.b	@r4,	r9	
 112:	00 5f       	add	r15,	r0	
 114:	5f 50 31 49 	add.b	18737(r0),r15	;PC rel. 0x4a47
 118:	45 53       	add.b	#0,	r5	;r3 As==00
 11a:	00 5f       	add	r15,	r0	
 11c:	5f 43       	mov.b	#1,	r15	;r3 As==01
 11e:	41 4c       	mov.b	r12,	r1	
 120:	44 43       	clr.b	r4		
 122:	4f 5f       	rla.b	r15		
 124:	31 4d       	mov	@r13+,	r1	
 126:	48 5a       	add.b	r10,	r8	
 128:	00 75       	subc	r5,	r0	
 12a:	6e 73       	subc.b	#2,	r14	;r3 As==10
 12c:	69 67       	addc.b	@r7,	r9	
 12e:	6e 65       	addc.b	@r5,	r14	
 130:	64 20       	jnz	$+202    	;abs 0x1fa
 132:	63 68       	.word	0x6863;	????	Illegal as 2-op instr
 134:	61 72       	subc.b	#4,	r1	;r2 As==10
 136:	00 72       	subc	r2,	r0	
 138:	6f 75       	subc.b	@r5,	r15	
 13a:	6e 64       	addc.b	@r4,	r14	
 13c:	00 6c       	addc	r12,	r0	
 13e:	6f 6e       	addc.b	@r14,	r15	
 140:	67 20       	jnz	$+208    	;abs 0x210
 142:	6c 6f       	addc.b	@r15,	r12	
 144:	6e 67       	addc.b	@r7,	r14	
 146:	20 75       	subc	@r5,	r0	
 148:	6e 73       	subc.b	#2,	r14	;r3 As==10
 14a:	69 67       	addc.b	@r7,	r9	
 14c:	6e 65       	addc.b	@r5,	r14	
 14e:	64 20       	jnz	$+202    	;abs 0x218
 150:	69 6e       	addc.b	@r14,	r9	
 152:	74 00       	.word	0x0074;	????	
 154:	5f 5f 50 32 	add.b	12880(r15),r15	;0x3250(r15)
 158:	53 45       	.word	0x4553;	????	Illegal as 2-op instr
 15a:	4c 00       	.word	0x004c;	????	
 15c:	62 6c       	addc.b	@r12,	r2	
 15e:	61 63       	addc.b	#2,	r1	;r3 As==10
 160:	6b 50       	add.b	@r0,	r11	
 162:	65 67       	addc.b	@r7,	r5	
 164:	00 73       	sbc	r0		
 166:	68 6f       	addc.b	@r15,	r8	
 168:	72 74       	subc.b	@r4+,	r2	
 16a:	20 75       	subc	@r5,	r0	
 16c:	6e 73       	subc.b	#2,	r14	;r3 As==10
 16e:	69 67       	addc.b	@r7,	r9	
 170:	6e 65       	addc.b	@r5,	r14	
 172:	64 20       	jnz	$+202    	;abs 0x23c
 174:	69 6e       	addc.b	@r14,	r9	
 176:	74 00       	.word	0x0074;	????	
 178:	5f 5f 50 31 	add.b	12624(r15),r15	;0x3150(r15)
 17c:	49 46       	mov.b	r6,	r9	
 17e:	47 00       	.word	0x0047;	????	
 180:	5f 5f 54 41 	add.b	16724(r15),r15	;0x4154(r15)
 184:	30 43       	br	#-1		;r3 As==11
 186:	54 4c 00 74 	mov.b	29696(r12),r4	;0x7400(r12)
 18a:	69 6d       	addc.b	@r13,	r9	
 18c:	65 72       	subc.b	#4,	r5	;r2 As==10
 18e:	30 5f       	add	@r15+,	r0	
 190:	69 73       	subc.b	#2,	r9	;r3 As==10
 192:	72 00       	.word	0x0072;	????	
 194:	63 68       	.word	0x6863;	????	Illegal as 2-op instr
 196:	65 63       	addc.b	#2,	r5	;r3 As==10
 198:	6b 41       	mov.b	@r1,	r11	
 19a:	6e 73       	subc.b	#2,	r14	;r3 As==10
 19c:	77 65       	addc.b	@r5+,	r7	
 19e:	72 00       	.word	0x0072;	????	
 1a0:	64 69       	addc.b	@r9,	r4	
 1a2:	61 6c       	addc.b	@r12,	r1	
 1a4:	49 6e       	addc.b	r14,	r9	
 1a6:	5f 61 72 72 	addc.b	29298(r1),r15	;0x7272(r1)
 1aa:	61 79       	subc.b	@r9,	r1	
 1ac:	00 5f       	add	r15,	r0	
 1ae:	5f 42 43 53 	mov.b	&0x5343,r15	
 1b2:	43 54       	.word	0x5443;	????	Illegal as 2-op instr
 1b4:	4c 31       	jn	$+666    	;abs 0x44e
 1b6:	00 5f       	add	r15,	r0	
 1b8:	5f 50 31 49 	add.b	18737(r0),r15	;PC rel. 0x4aeb
 1bc:	45 00       	.word	0x0045;	????	
 1be:	5f 5f 54 41 	add.b	16724(r15),r15	;0x4154(r15)
 1c2:	30 43       	br	#-1		;r3 As==11
 1c4:	43 52       	.word	0x5243;	????	Illegal as 2-op instr
 1c6:	30 00       	.word	0x0030;	????	
 1c8:	5f 5f 50 31 	add.b	12624(r15),r15	;0x3150(r15)
 1cc:	49 4e       	mov.b	r14,	r9	
 1ce:	00 6e       	addc	r14,	r0	
 1d0:	75 6d       	addc.b	@r13+,	r5	
 1d2:	62 65       	addc.b	@r5,	r2	
 1d4:	72 5f       	add.b	@r15+,	r2	
 1d6:	70 61       	addc.b	@r1+,	r0	
 1d8:	74 74       	subc.b	@r4+,	r4	
 1da:	65 72       	subc.b	#4,	r5	;r2 As==10
 1dc:	6e 73       	subc.b	#2,	r14	;r3 As==10
 1de:	31 00       	.word	0x0031;	????	
 1e0:	6e 75       	subc.b	@r5,	r14	
 1e2:	6d 62       	addc.b	#4,	r13	;r2 As==10
 1e4:	65 72       	subc.b	#4,	r5	;r2 As==10
 1e6:	5f 70 61 74 	subc.b	29793(r0),r15	;PC rel. 0x7649
 1ea:	74 65       	addc.b	@r5+,	r4	
 1ec:	72 6e       	addc.b	@r14+,	r2	
 1ee:	73 32       	jn	$-792    	;abs 0xfed6
 1f0:	00 74       	subc	r4,	r0	
 1f2:	69 6d       	addc.b	@r13,	r9	
 1f4:	65 72       	subc.b	#4,	r5	;r2 As==10
 1f6:	31 5f       	add	@r15+,	r1	
 1f8:	69 73       	subc.b	#2,	r9	;r3 As==10
 1fa:	72 00       	.word	0x0072;	????	
 1fc:	64 69       	addc.b	@r9,	r4	
 1fe:	61 6c       	addc.b	@r12,	r1	
 200:	49 6e       	addc.b	r14,	r9	
 202:	43 6f       	.word	0x6f43;	????	Illegal as 2-op instr
 204:	6c 6f       	addc.b	@r15,	r12	
 206:	72 00       	.word	0x0072;	????	
 208:	63 68       	.word	0x6863;	????	Illegal as 2-op instr
 20a:	65 63       	addc.b	#2,	r5	;r3 As==10
 20c:	6b 44       	mov.b	@r4,	r11	
 20e:	69 61       	addc.b	@r1,	r9	
 210:	6c 49       	mov.b	@r9,	r12	
 212:	6e 00       	.word	0x006e;	????	
 214:	5f 5f 43 41 	add.b	16707(r15),r15	;0x4143(r15)
 218:	4c 42       	mov.b	r2,	r12	
 21a:	43 31       	jn	$+648    	;abs 0x4a2
 21c:	5f 31       	jn	$+704    	;abs 0x4dc
 21e:	4d 48       	mov.b	r8,	r13	
 220:	5a 00       	.word	0x005a;	????	
 222:	5f 5f 41 44 	add.b	17473(r15),r15	;0x4441(r15)
 226:	43 31       	jn	$+648    	;abs 0x4ae
 228:	30 43       	br	#-1		;r3 As==11
 22a:	54 4c 31 00 	mov.b	49(r12),r4	;0x0031(r12)
 22e:	5f 5f 41 44 	add.b	17473(r15),r15	;0x4441(r15)
 232:	43 31       	jn	$+648    	;abs 0x4ba
 234:	30 44       	br	@r4+		
 236:	54 43       	mov.b	#1,	r4	;r3 As==01
 238:	31 00       	.word	0x0031;	????	
 23a:	5f 5f 41 44 	add.b	17473(r15),r15	;0x4441(r15)
 23e:	43 31       	jn	$+648    	;abs 0x4c6
 240:	30 44       	br	@r4+		
 242:	54 43       	mov.b	#1,	r4	;r3 As==01
 244:	30 00       	.word	0x0030;	????	
 246:	5f 5f 41 44 	add.b	17473(r15),r15	;0x4441(r15)
 24a:	43 31       	jn	$+648    	;abs 0x4d2
 24c:	30 43       	br	#-1		;r3 As==11
 24e:	54 4c 30 00 	mov.b	48(r12),r4	;0x0030(r12)
 252:	70 6f       	addc.b	@r15+,	r0	
 254:	69 6e       	addc.b	@r14,	r9	
 256:	74 65       	addc.b	@r5+,	r4	
 258:	72 00       	.word	0x0072;	????	
 25a:	5f 5f 41 44 	add.b	17473(r15),r15	;0x4441(r15)
 25e:	43 31       	jn	$+648    	;abs 0x4e6
 260:	30 41       	ret			
 262:	45 30       	jn	$+140    	;abs 0x2ee
 264:	00 63       	adc	r0		
 266:	68 61       	addc.b	@r1,	r8	
 268:	6e 6e       	addc.b	@r14,	r14	
 26a:	65 6c       	addc.b	@r12,	r5	
 26c:	00 64       	addc	r4,	r0	
 26e:	74 63       	addc.b	#-1,	r4	;r3 As==11
 270:	2e 63       	addc	#2,	r14	;r3 As==10
 272:	00 5f       	add	r15,	r0	
 274:	5f 41 44 43 	mov.b	17220(r1),r15	;0x4344(r1)
 278:	31 30       	jn	$+100    	;abs 0x2dc
 27a:	53 41       	.word	0x4153;	????	Illegal as 2-op instr
 27c:	00 69       	addc	r9,	r0	
 27e:	6e 69       	addc.b	@r9,	r14	
 280:	74 69       	addc.b	@r9+,	r4	
 282:	61 6c       	addc.b	@r12,	r1	
 284:	69 7a       	subc.b	@r10,	r9	
 286:	65 5f       	add.b	@r15,	r5	
 288:	64 74       	subc.b	@r4,	r4	
 28a:	63 00       	.word	0x0063;	????	
 28c:	69 6e       	addc.b	@r14,	r9	
 28e:	70 75       	subc.b	@r5+,	r0	
 290:	74 2e       	jc	$-790    	;abs 0xff7a
 292:	63 00       	.word	0x0063;	????	
 294:	70 72       	subc.b	#8,	r0	;r2 As==11
 296:	6f 6d       	addc.b	@r13,	r15	
 298:	70 74       	subc.b	@r4+,	r0	
 29a:	5f 66 6f 72 	addc.b	29295(r6),r15	;0x726f(r6)
 29e:	5f 6c 69 6e 	addc.b	28265(r12),r15	;0x6e69(r12)
 2a2:	65 00       	.word	0x0065;	????	
 2a4:	63 69       	.word	0x6963;	????	Illegal as 2-op instr
 2a6:	6f 5f       	add.b	@r15,	r15	
 2a8:	70 72       	subc.b	#8,	r0	;r2 As==11
 2aa:	69 6e       	addc.b	@r14,	r9	
 2ac:	74 62       	addc.b	#8,	r4	;r2 As==11
 2ae:	00 63       	adc	r0		
 2b0:	69 6f       	addc.b	@r15,	r9	
 2b2:	5f 70 72 69 	subc.b	26994(r0),r15	;PC rel. 0x6c26
 2b6:	6e 74       	subc.b	@r4,	r14	
 2b8:	66 00       	.word	0x0066;	????	
 2ba:	5f 5f 62 75 	add.b	30050(r15),r15	;0x7562(r15)
 2be:	69 6c       	addc.b	@r12,	r9	
 2c0:	74 69       	addc.b	@r9+,	r4	
 2c2:	6e 5f       	add.b	@r15,	r14	
 2c4:	76 61       	addc.b	@r1+,	r6	
 2c6:	5f 6c 69 73 	addc.b	29545(r12),r15	;0x7369(r12)
 2ca:	74 00       	.word	0x0074;	????	
 2cc:	63 69       	.word	0x6963;	????	Illegal as 2-op instr
 2ce:	6f 5f       	add.b	@r15,	r15	
 2d0:	70 72       	subc.b	#8,	r0	;r2 As==11
 2d2:	69 6e       	addc.b	@r14,	r9	
 2d4:	74 69       	addc.b	@r9+,	r4	
 2d6:	00 5f       	add	r15,	r0	
 2d8:	78 74       	subc.b	@r4+,	r8	
 2da:	6f 61       	addc.b	@r1,	r15	
 2dc:	00 62       	addc	r2,	r0	
 2de:	61 64       	addc.b	@r4,	r1	
 2e0:	5f 66 6d 74 	addc.b	29805(r6),r15	;0x746d(r6)
 2e4:	00 73       	sbc	r0		
 2e6:	69 7a       	subc.b	@r10,	r9	
 2e8:	65 00       	.word	0x0065;	????	
 2ea:	5f 70 75 74 	subc.b	29813(r0),r15	;PC rel. 0x7761
 2ee:	68 00       	.word	0x0068;	????	
 2f0:	2f 68       	addc	@r8,	r15	
 2f2:	6f 6d       	addc.b	@r13,	r15	
 2f4:	65 2f       	jc	$-308    	;abs 0x1c0
 2f6:	6a 69       	addc.b	@r9,	r10	
 2f8:	61 79       	subc.b	@r9,	r1	
 2fa:	75 63       	addc.b	#-1,	r5	;r3 As==11
 2fc:	68 61       	addc.b	@r1,	r8	
 2fe:	6e 2f       	jc	$-290    	;abs 0x1dc
 300:	44 6f       	addc.b	r15,	r4	
 302:	77 6e       	addc.b	@r14+,	r7	
 304:	6c 6f       	addc.b	@r15,	r12	
 306:	61 64       	addc.b	@r4,	r1	
 308:	73 2f       	jc	$-280    	;abs 0x1f0
 30a:	6c 69       	addc.b	@r9,	r12	
 30c:	62 65       	addc.b	@r5,	r2	
 30e:	6d 62       	addc.b	#4,	r13	;r2 As==10
 310:	2f 6c       	addc	@r12,	r15	
 312:	69 62       	addc.b	#4,	r9	;r2 As==10
 314:	63 6f       	.word	0x6f63;	????	Illegal as 2-op instr
 316:	6e 69       	addc.b	@r9,	r14	
 318:	6f 2f       	jc	$-288    	;abs 0x1f8
 31a:	73 72       	.word	0x7273;	????	Illegal as 2-op instr
 31c:	63 00       	.word	0x0063;	????	
 31e:	63 6f       	.word	0x6f63;	????	Illegal as 2-op instr
 320:	6e 69       	addc.b	@r9,	r14	
 322:	6f 2e       	jc	$-800    	;abs 0x2
 324:	63 00       	.word	0x0063;	????	
 326:	66 6f       	addc.b	@r15,	r6	
 328:	72 6d       	addc.b	@r13+,	r2	
 32a:	61 74       	subc.b	@r4,	r1	
 32c:	00 63       	adc	r0		
 32e:	69 6f       	addc.b	@r15,	r9	
 330:	5f 70 72 69 	subc.b	26994(r0),r15	;PC rel. 0x6ca4
 334:	6e 74       	subc.b	@r4,	r14	
 336:	00 5f       	add	r15,	r0	
 338:	5f 67 6e 75 	addc.b	30062(r7),r15	;0x756e(r7)
 33c:	63 5f       	.word	0x5f63;	????	Illegal as 2-op instr
 33e:	76 61       	addc.b	@r1+,	r6	
 340:	5f 6c 69 73 	addc.b	29545(r12),r15	;0x7369(r12)
 344:	74 00       	.word	0x0074;	????	
 346:	62 75       	subc.b	@r5,	r2	
 348:	66 66       	addc.b	@r6,	r6	
 34a:	65 72       	subc.b	#4,	r5	;r2 As==10
 34c:	00 63       	adc	r0		
 34e:	69 6f       	addc.b	@r15,	r9	
 350:	5f 67 65 74 	addc.b	29797(r7),r15	;0x7465(r7)
 354:	63 00       	.word	0x0063;	????	
 356:	63 69       	.word	0x6963;	????	Illegal as 2-op instr
 358:	6f 5f       	add.b	@r15,	r15	
 35a:	70 72       	subc.b	#8,	r0	;r2 As==11
 35c:	69 6e       	addc.b	@r14,	r9	
 35e:	74 63       	addc.b	#-1,	r4	;r3 As==11
 360:	00 63       	adc	r0		
 362:	6f 6e       	addc.b	@r14,	r15	
 364:	69 6f       	addc.b	@r15,	r9	
 366:	5f 73       	subc.b	#1,	r15	;r3 As==01
 368:	65 72       	subc.b	#4,	r5	;r2 As==10
 36a:	69 61       	addc.b	@r1,	r9	
 36c:	6c 2e       	jc	$-806    	;abs 0x46
 36e:	63 00       	.word	0x0063;	????	
 370:	63 6c       	.word	0x6c63;	????	Illegal as 2-op instr
 372:	6b 73       	subc.b	#2,	r11	;r3 As==10
 374:	70 65       	addc.b	@r5+,	r0	
 376:	65 64       	addc.b	@r4,	r5	
 378:	00 73       	sbc	r0		
 37a:	65 72       	subc.b	#4,	r5	;r2 As==10
 37c:	69 61       	addc.b	@r1,	r9	
 37e:	6c 5f       	add.b	@r15,	r12	
 380:	72 65       	addc.b	@r5+,	r2	
 382:	63 76       	.word	0x7663;	????	Illegal as 2-op instr
 384:	5f 62 6c 6f 	addc.b	&0x6f6c,r15	
 388:	63 6b       	.word	0x6b63;	????	Illegal as 2-op instr
 38a:	69 6e       	addc.b	@r14,	r9	
 38c:	67 00       	.word	0x0067;	????	
 38e:	73 65       	.word	0x6573;	????	Illegal as 2-op instr
 390:	72 69       	addc.b	@r9+,	r2	
 392:	61 6c       	addc.b	@r12,	r1	
 394:	5f 75 73 63 	subc.b	25459(r5),r15	;0x6373(r5)
 398:	69 5f       	add.b	@r15,	r9	
 39a:	6d 73       	subc.b	#2,	r13	;r3 As==10
 39c:	70 34       	jge	$+226    	;abs 0x47e
 39e:	33 30       	jn	$+104    	;abs 0x406
 3a0:	2e 63       	addc	#2,	r14	;r3 As==10
 3a2:	00 5f       	add	r15,	r0	
 3a4:	5f 55 43 41 	add.b	16707(r5),r15	;0x4143(r5)
 3a8:	30 52       	add	#8,	r0	;r2 As==11
 3aa:	58 42 55 46 	mov.b	&0x4655,r8	
 3ae:	00 2f       	jc	$-510    	;abs 0x1b0
 3b0:	68 6f       	addc.b	@r15,	r8	
 3b2:	6d 65       	addc.b	@r5,	r13	
 3b4:	2f 6a       	addc	@r10,	r15	
 3b6:	69 61       	addc.b	@r1,	r9	
 3b8:	79 75       	subc.b	@r5+,	r9	
 3ba:	63 68       	.word	0x6863;	????	Illegal as 2-op instr
 3bc:	61 6e       	addc.b	@r14,	r1	
 3be:	2f 44       	mov	@r4,	r15	
 3c0:	6f 77       	subc.b	@r7,	r15	
 3c2:	6e 6c       	addc.b	@r12,	r14	
 3c4:	6f 61       	addc.b	@r1,	r15	
 3c6:	64 73       	subc.b	#2,	r4	;r3 As==10
 3c8:	2f 6c       	addc	@r12,	r15	
 3ca:	69 62       	addc.b	#4,	r9	;r2 As==10
 3cc:	65 6d       	addc.b	@r13,	r5	
 3ce:	62 2f       	jc	$-314    	;abs 0x294
 3d0:	6c 69       	addc.b	@r9,	r12	
 3d2:	62 73       	subc.b	#2,	r2	;r3 As==10
 3d4:	65 72       	subc.b	#4,	r5	;r2 As==10
 3d6:	69 61       	addc.b	@r1,	r9	
 3d8:	6c 2f       	jc	$-294    	;abs 0x2b2
 3da:	73 72       	.word	0x7273;	????	Illegal as 2-op instr
 3dc:	63 00       	.word	0x0063;	????	
 3de:	5f 5f 55 43 	add.b	17237(r15),r15	;0x4355(r15)
 3e2:	41 30       	jn	$+132    	;abs 0x466
 3e4:	43 54       	.word	0x5443;	????	Illegal as 2-op instr
 3e6:	4c 31       	jn	$+666    	;abs 0x680
 3e8:	00 73       	sbc	r0		
 3ea:	65 72       	subc.b	#4,	r5	;r2 As==10
 3ec:	69 61       	addc.b	@r1,	r9	
 3ee:	6c 5f       	add.b	@r15,	r12	
 3f0:	72 65       	addc.b	@r5+,	r2	
 3f2:	63 76       	.word	0x7663;	????	Illegal as 2-op instr
 3f4:	00 73       	sbc	r0		
 3f6:	65 72       	subc.b	#4,	r5	;r2 As==10
 3f8:	69 61       	addc.b	@r1,	r9	
 3fa:	6c 5f       	add.b	@r15,	r12	
 3fc:	73 65       	.word	0x6573;	????	Illegal as 2-op instr
 3fe:	6e 64       	addc.b	@r4,	r14	
 400:	00 5f       	add	r15,	r0	
 402:	5f 50 31 53 	add.b	21297(r0),r15	;PC rel. 0x5735
 406:	45 4c       	mov.b	r12,	r5	
 408:	32 00       	.word	0x0032;	????	
 40a:	5f 5f 50 31 	add.b	12624(r15),r15	;0x3150(r15)
 40e:	53 45       	.word	0x4553;	????	Illegal as 2-op instr
 410:	4c 00       	.word	0x004c;	????	
 412:	64 61       	addc.b	@r1,	r4	
 414:	74 61       	addc.b	@r1+,	r4	
 416:	00 62       	addc	r2,	r0	
 418:	61 75       	subc.b	@r5,	r1	
 41a:	64 72       	subc.b	#4,	r4	;r2 As==10
 41c:	61 74       	subc.b	@r4,	r1	
 41e:	65 00       	.word	0x0065;	????	
 420:	73 65       	.word	0x6573;	????	Illegal as 2-op instr
 422:	72 69       	addc.b	@r9+,	r2	
 424:	61 6c       	addc.b	@r12,	r1	
 426:	5f 63       	addc.b	#1,	r15	;r3 As==01
 428:	6c 6b       	addc.b	@r11,	r12	
 42a:	5f 69 6e 69 	addc.b	26990(r9),r15	;0x696e(r9)
 42e:	74 00       	.word	0x0074;	????	
 430:	5f 5f 55 43 	add.b	17237(r15),r15	;0x4355(r15)
 434:	41 30       	jn	$+132    	;abs 0x4b8
 436:	54 58 42 55 	add.b	21826(r8),r4	;0x5542(r8)
 43a:	46 00       	.word	0x0046;	????	
 43c:	73 65       	.word	0x6573;	????	Illegal as 2-op instr
 43e:	72 69       	addc.b	@r9+,	r2	
 440:	61 6c       	addc.b	@r12,	r1	
 442:	5f 69 6e 69 	addc.b	26990(r9),r15	;0x696e(r9)
 446:	74 00       	.word	0x0074;	????	
 448:	5f 5f 55 43 	add.b	17237(r15),r15	;0x4355(r15)
 44c:	41 30       	jn	$+132    	;abs 0x4d0
 44e:	4d 43       	clr.b	r13		
 450:	54 4c 00 73 	mov.b	29440(r12),r4	;0x7300(r12)
 454:	65 72       	subc.b	#4,	r5	;r2 As==10
 456:	69 61       	addc.b	@r1,	r9	
 458:	6c 5f       	add.b	@r15,	r12	
 45a:	73 65       	.word	0x6573;	????	Illegal as 2-op instr
 45c:	6e 64       	addc.b	@r4,	r14	
 45e:	5f 62 6c 6f 	addc.b	&0x6f6c,r15	
 462:	63 6b       	.word	0x6b63;	????	Illegal as 2-op instr
 464:	69 6e       	addc.b	@r14,	r9	
 466:	67 00       	.word	0x0067;	????	
 468:	5f 5f 49 46 	add.b	17993(r15),r15	;0x4649(r15)
 46c:	47 32       	jn	$-880    	;abs 0xfc
 46e:	00 5f       	add	r15,	r0	
 470:	5f 55 43 41 	add.b	16707(r5),r15	;0x4143(r5)
 474:	30 42       	br	#8		;r2 As==11
 476:	52 30       	jn	$+166    	;abs 0x51c
 478:	00 5f       	add	r15,	r0	
 47a:	5f 55 43 41 	add.b	16707(r5),r15	;0x4143(r5)
 47e:	30 42       	br	#8		;r2 As==11
 480:	52 31       	jn	$+678    	;abs 0x726
	...

Disassembly of section .debug_loc:

00000000 <.debug_loc>:
   0:	f2 c0 f6 c0 	bic.b	#-16138,&0x0002	;#0xc0f6
   4:	02 00 
   6:	71 02       	.word	0x0271;	????	
   8:	f6 c0 04 c1 	bic.b	#-16124,2(r6)	;#0xc104, 0x0002(r6)
   c:	02 00 
   e:	71 1a       	.word	0x1a71;	????	
  10:	04 c1       	bic	r1,	r4	
  12:	08 c1       	bic	r1,	r8	
  14:	02 00       	.word	0x0002;	????	
  16:	71 1c       	.word	0x1c71;	????	
  18:	08 c1       	bic	r1,	r8	
  1a:	0e c1       	bic	r1,	r14	
  1c:	02 00       	.word	0x0002;	????	
  1e:	71 1e       	.word	0x1e71;	????	
  20:	0e c1       	bic	r1,	r14	
  22:	20 c1       	bic	@r1,	r0	
  24:	02 00       	.word	0x0002;	????	
  26:	71 1a       	.word	0x1a71;	????	
  28:	20 c1       	bic	@r1,	r0	
  2a:	24 c1       	bic	@r1,	r4	
  2c:	02 00       	.word	0x0002;	????	
  2e:	71 1c       	.word	0x1c71;	????	
  30:	24 c1       	bic	@r1,	r4	
  32:	2a c1       	bic	@r1,	r10	
  34:	02 00       	.word	0x0002;	????	
  36:	71 1e       	.word	0x1e71;	????	
  38:	2a c1       	bic	@r1,	r10	
  3a:	38 c1       	bic	@r1+,	r8	
  3c:	02 00       	.word	0x0002;	????	
  3e:	71 1a       	.word	0x1a71;	????	
  40:	38 c1       	bic	@r1+,	r8	
  42:	3e c1       	bic	@r1+,	r14	
  44:	02 00       	.word	0x0002;	????	
  46:	71 1c       	.word	0x1c71;	????	
  48:	3e c1       	bic	@r1+,	r14	
  4a:	42 c2       	bic.b	r2,	r2	
  4c:	02 00       	.word	0x0002;	????	
  4e:	71 1a       	.word	0x1a71;	????	
  50:	42 c2       	bic.b	r2,	r2	
  52:	44 c2       	bic.b	r2,	r4	
  54:	02 00       	.word	0x0002;	????	
  56:	71 1c       	.word	0x1c71;	????	
  58:	44 c2       	bic.b	r2,	r4	
  5a:	48 c2       	bic.b	r2,	r8	
  5c:	02 00       	.word	0x0002;	????	
  5e:	71 1e       	.word	0x1e71;	????	
  60:	48 c2       	bic.b	r2,	r8	
  62:	50 c2 02 00 	bic.b	&0x0002,r0	
  66:	71 20       	jnz	$+228    	;abs 0x14a
  68:	50 c2 66 c2 	bic.b	&0xc266,r0	
  6c:	02 00       	.word	0x0002;	????	
  6e:	71 1a       	.word	0x1a71;	????	
  70:	66 c2       	bic.b	#4,	r6	;r2 As==10
  72:	6c c2       	bic.b	#4,	r12	;r2 As==10
  74:	02 00       	.word	0x0002;	????	
  76:	71 1c       	.word	0x1c71;	????	
  78:	6c c2       	bic.b	#4,	r12	;r2 As==10
  7a:	b0 c2 02 00 	bic	#8,	2(r0)	;r2 As==11, PC rel. 0x007e
  7e:	71 1a       	.word	0x1a71;	????	
  80:	b0 c2 b6 c2 	bic	#8,	-15690(r0);r2 As==11, PC rel. 0xc338
  84:	02 00       	.word	0x0002;	????	
  86:	71 1c       	.word	0x1c71;	????	
  88:	b6 c2 f2 c2 	bic	#8,	-15630(r6);r2 As==11, 0xc2f2(r6)
  8c:	02 00       	.word	0x0002;	????	
  8e:	71 1a       	.word	0x1a71;	????	
  90:	00 00       	.word	0x0000;	????	
  92:	00 00       	.word	0x0000;	????	
  94:	3e c0 d8 c0 	bic	#-16168,r14	;#0xc0d8
  98:	02 00       	.word	0x0002;	????	
  9a:	71 00       	.word	0x0071;	????	
  9c:	d8 c0 dc c0 	bic.b	-16164(r0),2(r8)	;PC rel. 0xc17a, 0x0002(r8)
  a0:	02 00 
  a2:	71 02       	.word	0x0271;	????	
  a4:	dc c0 e2 c0 	bic.b	-16158(r0),2(r12)	;PC rel. 0xc188, 0x0002(r12)
  a8:	02 00 
  aa:	71 04       	.word	0x0471;	????	
  ac:	e2 c0 e8 c0 	bic.b	@r0,	&0xc0e8	
  b0:	02 00       	.word	0x0002;	????	
  b2:	71 00       	.word	0x0071;	????	
  b4:	00 00       	.word	0x0000;	????	
  b6:	00 00       	.word	0x0000;	????	
  b8:	f2 c2 f4 c2 	bic.b	#8,	&0xc2f4	;r2 As==11
  bc:	02 00       	.word	0x0002;	????	
  be:	71 00       	.word	0x0071;	????	
  c0:	f4 c2 f6 c2 	bic.b	#8,	-15626(r4);r2 As==11, 0xc2f6(r4)
  c4:	02 00       	.word	0x0002;	????	
  c6:	71 02       	.word	0x0271;	????	
  c8:	f6 c2 f8 c2 	bic.b	#8,	-15624(r6);r2 As==11, 0xc2f8(r6)
  cc:	02 00       	.word	0x0002;	????	
  ce:	71 04       	.word	0x0471;	????	
  d0:	f8 c2 fa c2 	bic.b	#8,	-15622(r8);r2 As==11, 0xc2fa(r8)
  d4:	02 00       	.word	0x0002;	????	
  d6:	71 06       	.word	0x0671;	????	
  d8:	fa c2 58 c3 	bic.b	#8,	-15528(r10);r2 As==11, 0xc358(r10)
  dc:	02 00       	.word	0x0002;	????	
  de:	71 08       	.word	0x0871;	????	
  e0:	00 00       	.word	0x0000;	????	
  e2:	00 00       	.word	0x0000;	????	
  e4:	58 c3       	bic.b	#1,	r8	;r3 As==01
  e6:	5a c3       	bic.b	#1,	r10	;r3 As==01
  e8:	02 00       	.word	0x0002;	????	
  ea:	71 00       	.word	0x0071;	????	
  ec:	5a c3       	bic.b	#1,	r10	;r3 As==01
  ee:	5c c3       	bic.b	#1,	r12	;r3 As==01
  f0:	02 00       	.word	0x0002;	????	
  f2:	71 02       	.word	0x0271;	????	
  f4:	5c c3       	bic.b	#1,	r12	;r3 As==01
  f6:	74 c5       	bic.b	@r5+,	r4	
  f8:	02 00       	.word	0x0002;	????	
  fa:	71 04       	.word	0x0471;	????	
  fc:	00 00       	.word	0x0000;	????	
  fe:	00 00       	.word	0x0000;	????	
 100:	00 00       	.word	0x0000;	????	
 102:	02 00       	.word	0x0002;	????	
 104:	02 00       	.word	0x0002;	????	
 106:	71 02       	.word	0x0271;	????	
 108:	02 00       	.word	0x0002;	????	
 10a:	9e 00       	.word	0x009e;	????	
 10c:	02 00       	.word	0x0002;	????	
 10e:	71 06       	.word	0x0671;	????	
 110:	00 00       	.word	0x0000;	????	
 112:	00 00       	.word	0x0000;	????	
 114:	00 00       	.word	0x0000;	????	
 116:	04 00       	.word	0x0004;	????	
 118:	02 00       	.word	0x0002;	????	
 11a:	71 02       	.word	0x0271;	????	
 11c:	04 00       	.word	0x0004;	????	
 11e:	e8 00       	.word	0x00e8;	????	
 120:	02 00       	.word	0x0002;	????	
 122:	71 08       	.word	0x0871;	????	
 124:	00 00       	.word	0x0000;	????	
 126:	00 00       	.word	0x0000;	????	
 128:	00 00       	.word	0x0000;	????	
 12a:	02 00       	.word	0x0002;	????	
 12c:	02 00       	.word	0x0002;	????	
 12e:	71 02       	.word	0x0271;	????	
 130:	02 00       	.word	0x0002;	????	
 132:	04 00       	.word	0x0004;	????	
 134:	02 00       	.word	0x0002;	????	
 136:	71 04       	.word	0x0471;	????	
 138:	04 00       	.word	0x0004;	????	
 13a:	06 00       	.word	0x0006;	????	
 13c:	02 00       	.word	0x0002;	????	
 13e:	71 06       	.word	0x0671;	????	
 140:	06 00       	.word	0x0006;	????	
 142:	08 00       	.word	0x0008;	????	
 144:	02 00       	.word	0x0002;	????	
 146:	71 08       	.word	0x0871;	????	
 148:	08 00       	.word	0x0008;	????	
 14a:	0a 00       	.word	0x000a;	????	
 14c:	02 00       	.word	0x0002;	????	
 14e:	71 0a       	.word	0x0a71;	????	
 150:	0a 00       	.word	0x000a;	????	
 152:	6a 00       	.word	0x006a;	????	
 154:	02 00       	.word	0x0002;	????	
 156:	71 0c       	.word	0x0c71;	????	
 158:	00 00       	.word	0x0000;	????	
 15a:	00 00       	.word	0x0000;	????	
 15c:	00 00       	.word	0x0000;	????	
 15e:	14 00       	.word	0x0014;	????	
 160:	06 00       	.word	0x0006;	????	
 162:	5e 93       	cmp.b	#1,	r14	;r3 As==01
 164:	02 5f       	add	r15,	r2	
 166:	93 02       	.word	0x0293;	????	
 168:	14 00       	.word	0x0014;	????	
 16a:	66 00       	.word	0x0066;	????	
 16c:	06 00       	.word	0x0006;	????	
 16e:	5a 93       	cmp.b	#1,	r10	;r3 As==01
 170:	02 5b       	add	r11,	r2	
 172:	93 02       	.word	0x0293;	????	
 174:	00 00       	.word	0x0000;	????	
 176:	00 00       	.word	0x0000;	????	
 178:	00 00       	.word	0x0000;	????	
 17a:	14 00       	.word	0x0014;	????	
 17c:	01 00       	.word	0x0001;	????	
 17e:	5d 14       	.word	0x145d;	????	
 180:	00 60       	rlc	r0		
 182:	00 01       	.word	0x0100;	????	
 184:	00 57       	add	r7,	r0	
 186:	00 00       	.word	0x0000;	????	
 188:	00 00       	.word	0x0000;	????	
 18a:	2c 00       	.word	0x002c;	????	
 18c:	32 00       	.word	0x0032;	????	
 18e:	03 00       	.word	0x0003;	????	
 190:	08 30       	jn	$+18     	;abs 0x1a2
 192:	9f 32       	jn	$-704    	;abs 0xfed2
 194:	00 47       	br	r7		
 196:	00 01       	.word	0x0100;	????	
 198:	00 5f       	add	r15,	r0	
 19a:	00 00       	.word	0x0000;	????	
 19c:	00 00       	.word	0x0000;	????	
 19e:	2c 00       	.word	0x002c;	????	
 1a0:	47 00       	.word	0x0047;	????	
 1a2:	02 00       	.word	0x0002;	????	
 1a4:	77 7c       	subc.b	@r12+,	r7	
 1a6:	47 00       	.word	0x0047;	????	
 1a8:	4c 00       	.word	0x004c;	????	
 1aa:	06 00       	.word	0x0006;	????	
 1ac:	58 93       	cmp.b	#1,	r8	;r3 As==01
 1ae:	02 59       	add	r9,	r2	
 1b0:	93 02       	.word	0x0293;	????	
 1b2:	00 00       	.word	0x0000;	????	
 1b4:	00 00       	.word	0x0000;	????	
 1b6:	6a 00       	.word	0x006a;	????	
 1b8:	6e 00       	.word	0x006e;	????	
 1ba:	01 00       	.word	0x0001;	????	
 1bc:	5f 00       	.word	0x005f;	????	
 1be:	00 00       	.word	0x0000;	????	
 1c0:	00 78       	subc	r8,	r0	
 1c2:	00 7a       	subc	r10,	r0	
 1c4:	00 02       	.word	0x0200;	????	
 1c6:	00 71       	subc	r1,	r0	
 1c8:	02 7a       	subc	r10,	r2	
 1ca:	00 8c       	sub	r12,	r0	
 1cc:	00 02       	.word	0x0200;	????	
 1ce:	00 71       	subc	r1,	r0	
 1d0:	04 00       	.word	0x0004;	????	
 1d2:	00 00       	.word	0x0000;	????	
 1d4:	00 78       	subc	r8,	r0	
 1d6:	00 7e       	subc	r14,	r0	
 1d8:	00 01       	.word	0x0100;	????	
 1da:	00 5f       	add	r15,	r0	
 1dc:	00 00       	.word	0x0000;	????	
 1de:	00 00       	.word	0x0000;	????	
 1e0:	7c 00       	.word	0x007c;	????	
 1e2:	7e 00       	.word	0x007e;	????	
 1e4:	02 00       	.word	0x0002;	????	
 1e6:	30 9f       	cmp	@r15+,	r0	
 1e8:	00 00       	.word	0x0000;	????	
 1ea:	00 00       	.word	0x0000;	????	
 1ec:	8c 00       	.word	0x008c;	????	
 1ee:	8e 00       	.word	0x008e;	????	
 1f0:	02 00       	.word	0x0002;	????	
 1f2:	71 02       	.word	0x0271;	????	
 1f4:	8e 00       	.word	0x008e;	????	
 1f6:	90 00       	.word	0x0090;	????	
 1f8:	02 00       	.word	0x0002;	????	
 1fa:	71 04       	.word	0x0471;	????	
 1fc:	90 00       	.word	0x0090;	????	
 1fe:	92 00       	.word	0x0092;	????	
 200:	02 00       	.word	0x0002;	????	
 202:	71 06       	.word	0x0671;	????	
 204:	92 00       	.word	0x0092;	????	
 206:	96 00       	.word	0x0096;	????	
 208:	02 00       	.word	0x0002;	????	
 20a:	71 08       	.word	0x0871;	????	
 20c:	96 00       	.word	0x0096;	????	
 20e:	06 01       	.word	0x0106;	????	
 210:	02 00       	.word	0x0002;	????	
 212:	71 28       	jnc	$+228    	;abs 0x2f6
 214:	00 00       	.word	0x0000;	????	
 216:	00 00       	.word	0x0000;	????	
 218:	8c 00       	.word	0x008c;	????	
 21a:	9c 00       	.word	0x009c;	????	
 21c:	01 00       	.word	0x0001;	????	
 21e:	5f 9c 00 d0 	cmp.b	-12288(r12),r15	;0xd000(r12)
 222:	00 01       	.word	0x0100;	????	
 224:	00 5b       	add	r11,	r0	
 226:	d0 00       	.word	0x00d0;	????	
 228:	d8 00       	.word	0x00d8;	????	
 22a:	01 00       	.word	0x0001;	????	
 22c:	5f d8 00 e0 	bis.b	-8192(r8),r15	;0xe000(r8)
 230:	00 01       	.word	0x0100;	????	
 232:	00 5b       	add	r11,	r0	
 234:	e0 00       	.word	0x00e0;	????	
 236:	e2 00       	.word	0x00e2;	????	
 238:	01 00       	.word	0x0001;	????	
 23a:	5f 00       	.word	0x005f;	????	
 23c:	00 00       	.word	0x0000;	????	
 23e:	00 d2       	bis	r2,	r0	
 240:	00 d8       	bis	r8,	r0	
 242:	00 01       	.word	0x0100;	????	
 244:	00 5a       	add	r10,	r0	
 246:	00 00       	.word	0x0000;	????	
 248:	00 00       	.word	0x0000;	????	
 24a:	dc 00       	.word	0x00dc;	????	
 24c:	e2 00       	.word	0x00e2;	????	
 24e:	03 00       	.word	0x0003;	????	
 250:	7a 01       	.word	0x017a;	????	
 252:	9f 00       	.word	0x009f;	????	
 254:	00 00       	.word	0x0000;	????	
 256:	00 06       	.word	0x0600;	????	
 258:	01 08       	.word	0x0801;	????	
 25a:	01 02       	.word	0x0201;	????	
 25c:	00 71       	subc	r1,	r0	
 25e:	02 08       	.word	0x0802;	????	
 260:	01 0a       	.word	0x0a01;	????	
 262:	01 02       	.word	0x0201;	????	
 264:	00 71       	subc	r1,	r0	
 266:	04 0a       	.word	0x0a04;	????	
 268:	01 40       	mov	r0,	r1	
 26a:	01 02       	.word	0x0201;	????	
 26c:	00 71       	subc	r1,	r0	
 26e:	06 00       	.word	0x0006;	????	
 270:	00 00       	.word	0x0000;	????	
 272:	00 06       	.word	0x0600;	????	
 274:	01 10       	rrc	r1		
 276:	01 01       	.word	0x0101;	????	
 278:	00 5f       	add	r15,	r0	
 27a:	10 01       	.word	0x0110;	????	
 27c:	3c 01       	.word	0x013c;	????	
 27e:	01 00       	.word	0x0001;	????	
 280:	5a 00       	.word	0x005a;	????	
 282:	00 00       	.word	0x0000;	????	
 284:	00 06       	.word	0x0600;	????	
 286:	01 10       	rrc	r1		
 288:	01 01       	.word	0x0101;	????	
 28a:	00 5e       	add	r14,	r0	
 28c:	00 00       	.word	0x0000;	????	
 28e:	00 00       	.word	0x0000;	????	
 290:	10 01       	.word	0x0110;	????	
 292:	34 01       	.word	0x0134;	????	
 294:	01 00       	.word	0x0001;	????	
 296:	5b 36       	jge	$-840    	;abs 0xff4e
 298:	01 3e       	jmp	$-1020   	;abs 0xfe9c
 29a:	01 01       	.word	0x0101;	????	
 29c:	00 5b       	add	r11,	r0	
 29e:	00 00       	.word	0x0000;	????	
 2a0:	00 00       	.word	0x0000;	????	
 2a2:	40 01       	.word	0x0140;	????	
 2a4:	42 01       	.word	0x0142;	????	
 2a6:	02 00       	.word	0x0002;	????	
 2a8:	71 02       	.word	0x0271;	????	
 2aa:	42 01       	.word	0x0142;	????	
 2ac:	44 01       	.word	0x0144;	????	
 2ae:	02 00       	.word	0x0002;	????	
 2b0:	71 04       	.word	0x0471;	????	
 2b2:	44 01       	.word	0x0144;	????	
 2b4:	46 01       	.word	0x0146;	????	
 2b6:	02 00       	.word	0x0002;	????	
 2b8:	71 06       	.word	0x0671;	????	
 2ba:	46 01       	.word	0x0146;	????	
 2bc:	48 01       	.word	0x0148;	????	
 2be:	02 00       	.word	0x0002;	????	
 2c0:	71 08       	.word	0x0871;	????	
 2c2:	48 01       	.word	0x0148;	????	
 2c4:	6a 02       	.word	0x026a;	????	
 2c6:	02 00       	.word	0x0002;	????	
 2c8:	71 0a       	.word	0x0a71;	????	
 2ca:	00 00       	.word	0x0000;	????	
 2cc:	00 00       	.word	0x0000;	????	
 2ce:	40 01       	.word	0x0140;	????	
 2d0:	52 01       	.word	0x0152;	????	
 2d2:	02 00       	.word	0x0002;	????	
 2d4:	91 00       	.word	0x0091;	????	
 2d6:	52 01       	.word	0x0152;	????	
 2d8:	5e 01       	.word	0x015e;	????	
 2da:	03 00       	.word	0x0003;	????	
 2dc:	7a 01       	.word	0x017a;	????	
 2de:	9f 5e 01 54 	add	21505(r14),258(r15);0x5401(r14), 0x0102(r15)
 2e2:	02 01 
 2e4:	00 5a       	add	r10,	r0	
 2e6:	54 02       	.word	0x0254;	????	
 2e8:	56 02       	.word	0x0256;	????	
 2ea:	03 00       	.word	0x0003;	????	
 2ec:	7a 01       	.word	0x017a;	????	
 2ee:	9f 56 02 5c 	add	23554(r6),258(r15);0x5c02(r6), 0x0102(r15)
 2f2:	02 01 
 2f4:	00 5a       	add	r10,	r0	
 2f6:	5c 02       	.word	0x025c;	????	
 2f8:	60 02       	.word	0x0260;	????	
 2fa:	03 00       	.word	0x0003;	????	
 2fc:	7a 01       	.word	0x017a;	????	
 2fe:	9f 00       	.word	0x009f;	????	
 300:	00 00       	.word	0x0000;	????	
 302:	00 52       	add	r2,	r0	
 304:	01 5c       	add	r12,	r1	
 306:	01 01       	.word	0x0101;	????	
 308:	00 5f       	add	r15,	r0	
 30a:	5c 01       	.word	0x015c;	????	
 30c:	5e 01       	.word	0x015e;	????	
 30e:	02 00       	.word	0x0002;	????	
 310:	7a 01       	.word	0x017a;	????	
 312:	5e 01       	.word	0x015e;	????	
 314:	a5 01       	.word	0x01a5;	????	
 316:	02 00       	.word	0x0002;	????	
 318:	7a 7f       	subc.b	@r15+,	r10	
 31a:	a8 01       	.word	0x01a8;	????	
 31c:	ae 01       	.word	0x01ae;	????	
 31e:	01 00       	.word	0x0001;	????	
 320:	5f ae 01 b1 	dadd.b	-20223(r14),r15	;0xb101(r14)
 324:	01 02       	.word	0x0201;	????	
 326:	00 7a       	subc	r10,	r0	
 328:	7f b6       	bit.b	@r6+,	r15	
 32a:	01 ce       	bic	r14,	r1	
 32c:	01 01       	.word	0x0101;	????	
 32e:	00 5f       	add	r15,	r0	
 330:	ce 01       	.word	0x01ce;	????	
 332:	d1 01       	.word	0x01d1;	????	
 334:	02 00       	.word	0x0002;	????	
 336:	7a 7f       	subc.b	@r15+,	r10	
 338:	e0 01       	.word	0x01e0;	????	
 33a:	08 02       	.word	0x0208;	????	
 33c:	01 00       	.word	0x0001;	????	
 33e:	5f 08       	.word	0x085f;	????	
 340:	02 0b       	.word	0x0b02;	????	
 342:	02 02       	.word	0x0202;	????	
 344:	00 7a       	subc	r10,	r0	
 346:	7f 1c       	.word	0x1c7f;	????	
 348:	02 24       	jz	$+6      	;abs 0x34e
 34a:	02 01       	.word	0x0102;	????	
 34c:	00 5f       	add	r15,	r0	
 34e:	24 02       	.word	0x0224;	????	
 350:	33 02       	.word	0x0233;	????	
 352:	02 00       	.word	0x0002;	????	
 354:	7a 7f       	subc.b	@r15+,	r10	
 356:	54 02       	.word	0x0254;	????	
 358:	59 02       	.word	0x0259;	????	
 35a:	01 00       	.word	0x0001;	????	
 35c:	5f 5c 02 60 	add.b	24578(r12),r15	;0x6002(r12)
 360:	02 02       	.word	0x0202;	????	
 362:	00 7a       	subc	r10,	r0	
 364:	00 60       	rlc	r0		
 366:	02 6a       	addc	r10,	r2	
 368:	02 01       	.word	0x0102;	????	
 36a:	00 5f       	add	r15,	r0	
 36c:	00 00       	.word	0x0000;	????	
 36e:	00 00       	.word	0x0000;	????	
 370:	bc 01       	.word	0x01bc;	????	
 372:	ca 01       	.word	0x01ca;	????	
 374:	02 00       	.word	0x0002;	????	
 376:	79 7e       	subc.b	@r14+,	r9	
 378:	ca 01       	.word	0x01ca;	????	
 37a:	e0 01       	.word	0x01e0;	????	
 37c:	01 00       	.word	0x0001;	????	
 37e:	5b 22       	jnz	$-840    	;abs 0x36
 380:	02 33       	jn	$-506    	;abs 0x186
 382:	02 02       	.word	0x0202;	????	
 384:	00 79       	subc	r9,	r0	
 386:	7e 33       	jn	$-258    	;abs 0x284
 388:	02 54       	add	r4,	r2	
 38a:	02 01       	.word	0x0102;	????	
 38c:	00 5b       	add	r11,	r0	
 38e:	00 00       	.word	0x0000;	????	
 390:	00 00       	.word	0x0000;	????	
 392:	ea 01       	.word	0x01ea;	????	
 394:	04 02       	.word	0x0204;	????	
 396:	08 00       	.word	0x0008;	????	
 398:	78 7c       	subc.b	@r12+,	r8	
 39a:	93 02       	.word	0x0293;	????	
 39c:	78 7e       	subc.b	@r14+,	r8	
 39e:	93 02       	.word	0x0293;	????	
 3a0:	04 02       	.word	0x0204;	????	
 3a2:	0b 02       	.word	0x020b;	????	
 3a4:	07 00       	.word	0x0007;	????	
 3a6:	5c 93       	cmp.b	#1,	r12	;r3 As==01
 3a8:	02 78       	subc	r8,	r2	
 3aa:	7e 93       	cmp.b	#-1,	r14	;r3 As==11
 3ac:	02 0b       	.word	0x0b02;	????	
 3ae:	02 1a       	.word	0x1a02;	????	
 3b0:	02 06       	.word	0x0602;	????	
 3b2:	00 59       	add	r9,	r0	
 3b4:	93 02       	.word	0x0293;	????	
 3b6:	5b 93       	cmp.b	#1,	r11	;r3 As==01
 3b8:	02 00       	.word	0x0002;	????	
 3ba:	00 00       	.word	0x0000;	????	
 3bc:	00 50       	rla	r0		
 3be:	01 a0       	dadd	r0,	r1	
 3c0:	01 01       	.word	0x0101;	????	
 3c2:	00 5b       	add	r11,	r0	
 3c4:	a0 01       	.word	0x01a0;	????	
 3c6:	a8 01       	.word	0x01a8;	????	
 3c8:	01 00       	.word	0x0001;	????	
 3ca:	59 a8 01 ac 	dadd.b	-21503(r8),r9	;0xac01(r8)
 3ce:	01 01       	.word	0x0101;	????	
 3d0:	00 5b       	add	r11,	r0	
 3d2:	ac 01       	.word	0x01ac;	????	
 3d4:	b6 01       	.word	0x01b6;	????	
 3d6:	01 00       	.word	0x0001;	????	
 3d8:	59 b6 01 ba 	bit.b	-17919(r6),r9	;0xba01(r6)
 3dc:	01 01       	.word	0x0101;	????	
 3de:	00 5b       	add	r11,	r0	
 3e0:	ba 01       	.word	0x01ba;	????	
 3e2:	e0 01       	.word	0x01e0;	????	
 3e4:	01 00       	.word	0x0001;	????	
 3e6:	59 e0 01 e4 	xor.b	-7167(r0),r9	;PC rel. 0xe7e9
 3ea:	01 01       	.word	0x0101;	????	
 3ec:	00 5b       	add	r11,	r0	
 3ee:	e4 01       	.word	0x01e4;	????	
 3f0:	1c 02       	.word	0x021c;	????	
 3f2:	01 00       	.word	0x0001;	????	
 3f4:	58 1c       	.word	0x1c58;	????	
 3f6:	02 20       	jnz	$+6      	;abs 0x3fc
 3f8:	02 01       	.word	0x0102;	????	
 3fa:	00 5b       	add	r11,	r0	
 3fc:	20 02       	.word	0x0220;	????	
 3fe:	54 02       	.word	0x0254;	????	
 400:	01 00       	.word	0x0001;	????	
 402:	59 54 02 68 	add.b	26626(r4),r9	;0x6802(r4)
 406:	02 01       	.word	0x0102;	????	
 408:	00 5b       	add	r11,	r0	
 40a:	00 00       	.word	0x0000;	????	
 40c:	00 00       	.word	0x0000;	????	
 40e:	00 00       	.word	0x0000;	????	
 410:	03 00       	.word	0x0003;	????	
 412:	01 00       	.word	0x0001;	????	
 414:	5f 00       	.word	0x005f;	????	
 416:	00 00       	.word	0x0000;	????	
 418:	00 2a       	jnc	$-1022   	;abs 0x1a
 41a:	01 37       	jge	$-508    	;abs 0x21e
 41c:	01 01       	.word	0x0101;	????	
 41e:	00 5f       	add	r15,	r0	
 420:	00 00       	.word	0x0000;	????	
	...

Disassembly of section .debug_ranges:

00000000 <.debug_ranges>:
   0:	f2 c0 76 c5 	bic.b	#-14986,&0xc03e	;#0xc576
   4:	3e c0 
   6:	e8 c0 00 00 	bic.b	@r0,	0(r8)	;0x0000(r8)
	...
